
libsimple-accumulator.so:     file format elf32-i386


Disassembly of section .note.gnu.build-id:

00000114 <.note.gnu.build-id>:
 114:	04 00                	add    $0x0,%al
 116:	00 00                	add    %al,(%eax)
 118:	14 00                	adc    $0x0,%al
 11a:	00 00                	add    %al,(%eax)
 11c:	03 00                	add    (%eax),%eax
 11e:	00 00                	add    %al,(%eax)
 120:	47                   	inc    %edi
 121:	4e                   	dec    %esi
 122:	55                   	push   %ebp
 123:	00 9f 4f 6a 25 93    	add    %bl,-0x6cda95b1(%edi)
 129:	f6 f7                	div    %bh
 12b:	5d                   	pop    %ebp
 12c:	76 d8                	jbe    106 <_init-0x2b6>
 12e:	08 2a                	or     %ch,(%edx)
 130:	26 cf                	es iret 
 132:	d1 98 ec 02 d6 fe    	rcrl   -0x129fd14(%eax)

Disassembly of section .gnu.hash:

00000138 <.gnu.hash>:
 138:	03 00                	add    (%eax),%eax
 13a:	00 00                	add    %al,(%eax)
 13c:	06                   	push   %es
 13d:	00 00                	add    %al,(%eax)
 13f:	00 02                	add    %al,(%edx)
 141:	00 00                	add    %al,(%eax)
 143:	00 06                	add    %al,(%esi)
 145:	00 00                	add    %al,(%eax)
 147:	00 88 42 22 21 40    	add    %cl,0x40212242(%eax)
 14d:	c4 40 09             	les    0x9(%eax),%eax
 150:	06                   	push   %es
 151:	00 00                	add    %al,(%eax)
 153:	00 0b                	add    %cl,(%ebx)
 155:	00 00                	add    %al,(%eax)
 157:	00 0f                	add    %cl,(%edi)
 159:	00 00                	add    %al,(%eax)
 15b:	00 ae ed 19 f8 1c    	add    %ch,0x1cf819ed(%esi)
 161:	b6 02                	mov    $0x2,%dh
 163:	00 ae b1 01 fd 42    	add    %ch,0x42fd01b1(%esi)
 169:	45                   	inc    %ebp
 16a:	d5 ec                	aad    $0xec
 16c:	bb e3 92 7c b8       	mov    $0xb87c92e3,%ebx
 171:	8d                   	(bad)  
 172:	f1                   	icebp  
 173:	0e                   	push   %cs
 174:	d0                   	(bad)  
 175:	b1 7d                	mov    $0x7d,%cl
 177:	1e                   	push   %ds
 178:	d8 71 58             	fdivs  0x58(%ecx)
 17b:	1c 89                	sbb    $0x89,%al
 17d:	83 26 2b             	andl   $0x2b,(%esi)
 180:	eb d3                	jmp    155 <_init-0x267>
 182:	ef                   	out    %eax,(%dx)
 183:	0e                   	push   %cs

Disassembly of section .dynsym:

00000184 <.dynsym>:
	...
 194:	52                   	push   %edx
	...
 19d:	00 00                	add    %al,(%eax)
 19f:	00 20                	add    %ah,(%eax)
 1a1:	00 00                	add    %al,(%eax)
 1a3:	00 38                	add    %bh,(%eax)
	...
 1ad:	00 00                	add    %al,(%eax)
 1af:	00 20                	add    %ah,(%eax)
 1b1:	00 00                	add    %al,(%eax)
 1b3:	00 1c 00             	add    %bl,(%eax,%eax,1)
	...
 1be:	00 00                	add    %al,(%eax)
 1c0:	20 00                	and    %al,(%eax)
 1c2:	00 00                	add    %al,(%eax)
 1c4:	61                   	popa   
	...
 1cd:	00 00                	add    %al,(%eax)
 1cf:	00 20                	add    %ah,(%eax)
 1d1:	00 00                	add    %al,(%eax)
 1d3:	00 01                	add    %al,(%ecx)
	...
 1dd:	00 00                	add    %al,(%eax)
 1df:	00 20                	add    %ah,(%eax)
 1e1:	00 00                	add    %al,(%eax)
 1e3:	00 75 00             	add    %dh,0x0(%ebp)
 1e6:	00 00                	add    %al,(%eax)
 1e8:	30 05 00 00 20 00    	xor    %al,0x200000
 1ee:	00 00                	add    %al,(%eax)
 1f0:	12 00                	adc    (%eax),%al
 1f2:	09 00                	or     %eax,(%eax)
 1f4:	81 00 00 00 40 20    	addl   $0x20400000,(%eax)
 1fa:	01 00                	add    %eax,(%eax)
 1fc:	04 00                	add    $0x0,%al
 1fe:	00 00                	add    %al,(%eax)
 200:	11 00                	adc    %eax,(%eax)
 202:	14 00                	adc    $0x0,%al
 204:	91                   	xchg   %eax,%ecx
 205:	00 00                	add    %al,(%eax)
 207:	00 50 05             	add    %dl,0x5(%eax)
 20a:	00 00                	add    %al,(%eax)
 20c:	1d 00 00 00 12       	sbb    $0x12000000,%eax
 211:	00 09                	add    %cl,(%ecx)
 213:	00 a4 00 00 00 10 20 	add    %ah,0x20100000(%eax,%eax,1)
 21a:	00 00                	add    %al,(%eax)
 21c:	00 00                	add    %al,(%eax)
 21e:	00 00                	add    %al,(%eax)
 220:	10 00                	adc    %al,(%eax)
 222:	13 00                	adc    (%eax),%eax
 224:	b7 00                	mov    $0x0,%bh
 226:	00 00                	add    %al,(%eax)
 228:	44                   	inc    %esp
 229:	20 01                	and    %al,(%ecx)
 22b:	00 00                	add    %al,(%eax)
 22d:	00 00                	add    %al,(%eax)
 22f:	00 10                	add    %dl,(%eax)
 231:	00 14 00             	add    %dl,(%eax,%eax,1)
 234:	10 00                	adc    %al,(%eax)
 236:	00 00                	add    %al,(%eax)
 238:	bc 03 00 00 00       	mov    $0x3,%esp
 23d:	00 00                	add    %al,(%eax)
 23f:	00 12                	add    %dl,(%edx)
 241:	00 06                	add    %al,(%esi)
 243:	00 99 00 00 00 6d    	add    %bl,0x6d000000(%ecx)
 249:	05 00 00 06 00       	add    $0x60000,%eax
 24e:	00 00                	add    %al,(%eax)
 250:	12 00                	adc    (%eax),%al
 252:	09 00                	or     %eax,(%eax)
 254:	ab                   	stos   %eax,%es:(%edi)
 255:	00 00                	add    %al,(%eax)
 257:	00 10                	add    %dl,(%eax)
 259:	20 00                	and    %al,(%eax)
 25b:	00 00                	add    %al,(%eax)
 25d:	00 00                	add    %al,(%eax)
 25f:	00 10                	add    %dl,(%eax)
 261:	00 14 00             	add    %dl,(%eax,%eax,1)
 264:	83 00 00             	addl   $0x0,(%eax)
 267:	00 40 20             	add    %al,0x20(%eax)
 26a:	00 00                	add    %al,(%eax)
 26c:	00 00                	add    %al,(%eax)
 26e:	01 00                	add    %eax,(%eax)
 270:	11 00                	adc    %eax,(%eax)
 272:	14 00                	adc    $0x0,%al
 274:	16                   	push   %ss
 275:	00 00                	add    %al,(%eax)
 277:	00 74 05 00          	add    %dh,0x0(%ebp,%eax,1)
 27b:	00 00                	add    %al,(%eax)
 27d:	00 00                	add    %al,(%eax)
 27f:	00 12                	add    %dl,(%edx)
 281:	00 0a                	add    %cl,(%edx)
	...

Disassembly of section .dynstr:

00000284 <.dynstr>:
 284:	00 5f 5f             	add    %bl,0x5f(%edi)
 287:	67 6d                	insl   (%dx),%es:(%di)
 289:	6f                   	outsl  %ds:(%esi),(%dx)
 28a:	6e                   	outsb  %ds:(%esi),(%dx)
 28b:	5f                   	pop    %edi
 28c:	73 74                	jae    302 <_init-0xba>
 28e:	61                   	popa   
 28f:	72 74                	jb     305 <_init-0xb7>
 291:	5f                   	pop    %edi
 292:	5f                   	pop    %edi
 293:	00 5f 69             	add    %bl,0x69(%edi)
 296:	6e                   	outsb  %ds:(%esi),(%dx)
 297:	69 74 00 5f 66 69 6e 	imul   $0x696e6966,0x5f(%eax,%eax,1),%esi
 29e:	69 
 29f:	00 5f 49             	add    %bl,0x49(%edi)
 2a2:	54                   	push   %esp
 2a3:	4d                   	dec    %ebp
 2a4:	5f                   	pop    %edi
 2a5:	64 65 72 65          	fs gs jb 30e <_init-0xae>
 2a9:	67 69 73 74 65 72 54 	imul   $0x4d547265,0x74(%bp,%di),%esi
 2b0:	4d 
 2b1:	43                   	inc    %ebx
 2b2:	6c                   	insb   (%dx),%es:(%edi)
 2b3:	6f                   	outsl  %ds:(%esi),(%dx)
 2b4:	6e                   	outsb  %ds:(%esi),(%dx)
 2b5:	65 54                	gs push %esp
 2b7:	61                   	popa   
 2b8:	62 6c 65 00          	bound  %ebp,0x0(%ebp,%eiz,2)
 2bc:	5f                   	pop    %edi
 2bd:	49                   	dec    %ecx
 2be:	54                   	push   %esp
 2bf:	4d                   	dec    %ebp
 2c0:	5f                   	pop    %edi
 2c1:	72 65                	jb     328 <_init-0x94>
 2c3:	67 69 73 74 65 72 54 	imul   $0x4d547265,0x74(%bp,%di),%esi
 2ca:	4d 
 2cb:	43                   	inc    %ebx
 2cc:	6c                   	insb   (%dx),%es:(%edi)
 2cd:	6f                   	outsl  %ds:(%esi),(%dx)
 2ce:	6e                   	outsb  %ds:(%esi),(%dx)
 2cf:	65 54                	gs push %esp
 2d1:	61                   	popa   
 2d2:	62 6c 65 00          	bound  %ebp,0x0(%ebp,%eiz,2)
 2d6:	5f                   	pop    %edi
 2d7:	5f                   	pop    %edi
 2d8:	63 78 61             	arpl   %di,0x61(%eax)
 2db:	5f                   	pop    %edi
 2dc:	66 69 6e 61 6c 69    	imul   $0x696c,0x61(%esi),%bp
 2e2:	7a 65                	jp     349 <_init-0x73>
 2e4:	00 5f 4a             	add    %bl,0x4a(%edi)
 2e7:	76 5f                	jbe    348 <_init-0x74>
 2e9:	52                   	push   %edx
 2ea:	65 67 69 73 74 65 72 	imul   $0x6c437265,%gs:0x74(%bp,%di),%esi
 2f1:	43 6c 
 2f3:	61                   	popa   
 2f4:	73 73                	jae    369 <_init-0x53>
 2f6:	65 73 00             	gs jae 2f9 <_init-0xc3>
 2f9:	74 65                	je     360 <_init-0x5c>
 2fb:	73 74                	jae    371 <_init-0x4b>
 2fd:	5f                   	pop    %edi
 2fe:	73 69                	jae    369 <_init-0x53>
 300:	6d                   	insl   (%dx),%es:(%edi)
 301:	70 6c                	jo     36f <_init-0x4d>
 303:	65 00 78 00          	add    %bh,%gs:0x0(%eax)
 307:	70 61                	jo     36a <_init-0x52>
 309:	79 6c                	jns    377 <_init-0x45>
 30b:	6f                   	outsl  %ds:(%esi),(%dx)
 30c:	61                   	popa   
 30d:	64 42                	fs inc %edx
 30f:	75 66                	jne    377 <_init-0x45>
 311:	66 65 72 00          	data16 gs jb 315 <_init-0xa7>
 315:	50                   	push   %eax
 316:	61                   	popa   
 317:	79 6c                	jns    385 <_init-0x37>
 319:	6f                   	outsl  %ds:(%esi),(%dx)
 31a:	61                   	popa   
 31b:	64 00 5f 5a          	add    %bl,%fs:0x5a(%edi)
 31f:	36 73 6f             	ss jae 391 <_init-0x2b>
 322:	6d                   	insl   (%dx),%es:(%edi)
 323:	61                   	popa   
 324:	69 6e 76 00 5f 65 64 	imul   $0x64655f00,0x76(%esi),%ebp
 32b:	61                   	popa   
 32c:	74 61                	je     38f <_init-0x2d>
 32e:	00 5f 5f             	add    %bl,0x5f(%edi)
 331:	62 73 73             	bound  %esi,0x73(%ebx)
 334:	5f                   	pop    %edi
 335:	73 74                	jae    3ab <_init-0x11>
 337:	61                   	popa   
 338:	72 74                	jb     3ae <_init-0xe>
 33a:	00 5f 65             	add    %bl,0x65(%edi)
 33d:	6e                   	outsb  %ds:(%esi),(%dx)
 33e:	64 00 6c 69 62       	add    %ch,%fs:0x62(%ecx,%ebp,2)
 343:	73 69                	jae    3ae <_init-0xe>
 345:	6d                   	insl   (%dx),%es:(%edi)
 346:	70 6c                	jo     3b4 <_init-0x8>
 348:	65 2d 61 63 63 75    	gs sub $0x75636361,%eax
 34e:	6d                   	insl   (%dx),%es:(%edi)
 34f:	75 6c                	jne    3bd <_init+0x1>
 351:	61                   	popa   
 352:	74 6f                	je     3c3 <_init+0x7>
 354:	72 2e                	jb     384 <_init-0x38>
 356:	73 6f                	jae    3c7 <_init+0xb>
	...

Disassembly of section .rel.dyn:

0000035c <.rel.dyn>:
 35c:	24 1f                	and    $0x1f,%al
 35e:	00 00                	add    %al,(%eax)
 360:	08 00                	or     %al,(%eax)
 362:	00 00                	add    %al,(%eax)
 364:	2c 1f                	sub    $0x1f,%al
 366:	00 00                	add    %al,(%eax)
 368:	08 00                	or     %al,(%eax)
 36a:	00 00                	add    %al,(%eax)
 36c:	0c 20                	or     $0x20,%al
 36e:	00 00                	add    %al,(%eax)
 370:	08 00                	or     %al,(%eax)
 372:	00 00                	add    %al,(%eax)
 374:	4b                   	dec    %ebx
 375:	05 00 00 01 07       	add    $0x7010000,%eax
 37a:	00 00                	add    %al,(%eax)
 37c:	5a                   	pop    %edx
 37d:	05 00 00 01 0e       	add    $0xe010000,%eax
 382:	00 00                	add    %al,(%eax)
 384:	5f                   	pop    %edi
 385:	05 00 00 02 06       	add    $0x6020000,%eax
 38a:	00 00                	add    %al,(%eax)
 38c:	28 1f                	sub    %bl,(%edi)
 38e:	00 00                	add    %al,(%eax)
 390:	01 0c 00             	add    %ecx,(%eax,%eax,1)
 393:	00 ec                	add    %ch,%ah
 395:	1f                   	pop    %ds
 396:	00 00                	add    %al,(%eax)
 398:	06                   	push   %es
 399:	01 00                	add    %eax,(%eax)
 39b:	00 f0                	add    %dh,%al
 39d:	1f                   	pop    %ds
 39e:	00 00                	add    %al,(%eax)
 3a0:	06                   	push   %es
 3a1:	02 00                	add    (%eax),%al
 3a3:	00 f4                	add    %dh,%ah
 3a5:	1f                   	pop    %ds
 3a6:	00 00                	add    %al,(%eax)
 3a8:	06                   	push   %es
 3a9:	03 00                	add    (%eax),%eax
 3ab:	00 f8                	add    %bh,%al
 3ad:	1f                   	pop    %ds
 3ae:	00 00                	add    %al,(%eax)
 3b0:	06                   	push   %es
 3b1:	04 00                	add    $0x0,%al
 3b3:	00 fc                	add    %bh,%ah
 3b5:	1f                   	pop    %ds
 3b6:	00 00                	add    %al,(%eax)
 3b8:	06                   	push   %es
 3b9:	05                   	.byte 0x5
	...

Disassembly of section .init:

000003bc <_init>:
 3bc:	53                   	push   %ebx
 3bd:	83 ec 08             	sub    $0x8,%esp
 3c0:	e8 3b 00 00 00       	call   400 <__x86.get_pc_thunk.bx>
 3c5:	81 c3 3b 1c 00 00    	add    $0x1c3b,%ebx
 3cb:	8b 83 fc ff ff ff    	mov    -0x4(%ebx),%eax
 3d1:	85 c0                	test   %eax,%eax
 3d3:	74 05                	je     3da <_init+0x1e>
 3d5:	e8 1e 00 00 00       	call   3f8 <_init+0x3c>
 3da:	83 c4 08             	add    $0x8,%esp
 3dd:	5b                   	pop    %ebx
 3de:	c3                   	ret    

Disassembly of section .plt:

000003e0 <.plt>:
 3e0:	ff b3 04 00 00 00    	pushl  0x4(%ebx)
 3e6:	ff a3 08 00 00 00    	jmp    *0x8(%ebx)
 3ec:	00 00                	add    %al,(%eax)
	...

Disassembly of section .plt.got:

000003f0 <.plt.got>:
 3f0:	ff a3 ec ff ff ff    	jmp    *-0x14(%ebx)
 3f6:	66 90                	xchg   %ax,%ax
 3f8:	ff a3 fc ff ff ff    	jmp    *-0x4(%ebx)
 3fe:	66 90                	xchg   %ax,%ax

Disassembly of section .text:

00000400 <__x86.get_pc_thunk.bx>:
 400:	8b 1c 24             	mov    (%esp),%ebx
 403:	c3                   	ret    
 404:	66 90                	xchg   %ax,%ax
 406:	66 90                	xchg   %ax,%ax
 408:	66 90                	xchg   %ax,%ax
 40a:	66 90                	xchg   %ax,%ax
 40c:	66 90                	xchg   %ax,%ax
 40e:	66 90                	xchg   %ax,%ax

00000410 <deregister_tm_clones>:
 410:	e8 17 01 00 00       	call   52c <__x86.get_pc_thunk.dx>
 415:	81 c2 eb 1b 00 00    	add    $0x1beb,%edx
 41b:	8d 8a 10 00 00 00    	lea    0x10(%edx),%ecx
 421:	8d 82 13 00 00 00    	lea    0x13(%edx),%eax
 427:	29 c8                	sub    %ecx,%eax
 429:	83 f8 06             	cmp    $0x6,%eax
 42c:	76 17                	jbe    445 <deregister_tm_clones+0x35>
 42e:	8b 82 f4 ff ff ff    	mov    -0xc(%edx),%eax
 434:	85 c0                	test   %eax,%eax
 436:	74 0d                	je     445 <deregister_tm_clones+0x35>
 438:	55                   	push   %ebp
 439:	89 e5                	mov    %esp,%ebp
 43b:	83 ec 14             	sub    $0x14,%esp
 43e:	51                   	push   %ecx
 43f:	ff d0                	call   *%eax
 441:	83 c4 10             	add    $0x10,%esp
 444:	c9                   	leave  
 445:	f3 c3                	repz ret 
 447:	89 f6                	mov    %esi,%esi
 449:	8d bc 27 00 00 00 00 	lea    0x0(%edi,%eiz,1),%edi

00000450 <register_tm_clones>:
 450:	e8 d7 00 00 00       	call   52c <__x86.get_pc_thunk.dx>
 455:	81 c2 ab 1b 00 00    	add    $0x1bab,%edx
 45b:	55                   	push   %ebp
 45c:	8d 8a 10 00 00 00    	lea    0x10(%edx),%ecx
 462:	8d 82 10 00 00 00    	lea    0x10(%edx),%eax
 468:	89 e5                	mov    %esp,%ebp
 46a:	53                   	push   %ebx
 46b:	29 c8                	sub    %ecx,%eax
 46d:	c1 f8 02             	sar    $0x2,%eax
 470:	83 ec 04             	sub    $0x4,%esp
 473:	89 c3                	mov    %eax,%ebx
 475:	c1 eb 1f             	shr    $0x1f,%ebx
 478:	01 d8                	add    %ebx,%eax
 47a:	d1 f8                	sar    %eax
 47c:	74 14                	je     492 <register_tm_clones+0x42>
 47e:	8b 92 f0 ff ff ff    	mov    -0x10(%edx),%edx
 484:	85 d2                	test   %edx,%edx
 486:	74 0a                	je     492 <register_tm_clones+0x42>
 488:	83 ec 08             	sub    $0x8,%esp
 48b:	50                   	push   %eax
 48c:	51                   	push   %ecx
 48d:	ff d2                	call   *%edx
 48f:	83 c4 10             	add    $0x10,%esp
 492:	8b 5d fc             	mov    -0x4(%ebp),%ebx
 495:	c9                   	leave  
 496:	c3                   	ret    
 497:	89 f6                	mov    %esi,%esi
 499:	8d bc 27 00 00 00 00 	lea    0x0(%edi,%eiz,1),%edi

000004a0 <__do_global_dtors_aux>:
 4a0:	55                   	push   %ebp
 4a1:	89 e5                	mov    %esp,%ebp
 4a3:	53                   	push   %ebx
 4a4:	e8 57 ff ff ff       	call   400 <__x86.get_pc_thunk.bx>
 4a9:	81 c3 57 1b 00 00    	add    $0x1b57,%ebx
 4af:	83 ec 04             	sub    $0x4,%esp
 4b2:	80 bb 20 00 00 00 00 	cmpb   $0x0,0x20(%ebx)
 4b9:	75 27                	jne    4e2 <__do_global_dtors_aux+0x42>
 4bb:	8b 83 ec ff ff ff    	mov    -0x14(%ebx),%eax
 4c1:	85 c0                	test   %eax,%eax
 4c3:	74 11                	je     4d6 <__do_global_dtors_aux+0x36>
 4c5:	83 ec 0c             	sub    $0xc,%esp
 4c8:	ff b3 0c 00 00 00    	pushl  0xc(%ebx)
 4ce:	e8 1d ff ff ff       	call   3f0 <_init+0x34>
 4d3:	83 c4 10             	add    $0x10,%esp
 4d6:	e8 35 ff ff ff       	call   410 <deregister_tm_clones>
 4db:	c6 83 20 00 00 00 01 	movb   $0x1,0x20(%ebx)
 4e2:	8b 5d fc             	mov    -0x4(%ebp),%ebx
 4e5:	c9                   	leave  
 4e6:	c3                   	ret    
 4e7:	89 f6                	mov    %esi,%esi
 4e9:	8d bc 27 00 00 00 00 	lea    0x0(%edi,%eiz,1),%edi

000004f0 <frame_dummy>:
 4f0:	e8 37 00 00 00       	call   52c <__x86.get_pc_thunk.dx>
 4f5:	81 c2 0b 1b 00 00    	add    $0x1b0b,%edx
 4fb:	8d 82 30 ff ff ff    	lea    -0xd0(%edx),%eax
 501:	8b 08                	mov    (%eax),%ecx
 503:	85 c9                	test   %ecx,%ecx
 505:	75 09                	jne    510 <frame_dummy+0x20>
 507:	e9 44 ff ff ff       	jmp    450 <register_tm_clones>
 50c:	8d 74 26 00          	lea    0x0(%esi,%eiz,1),%esi
 510:	8b 92 f8 ff ff ff    	mov    -0x8(%edx),%edx
 516:	85 d2                	test   %edx,%edxfz
 518:	74 ed                	je     507 <frame_dummy+0x17>
 51a:	55                   	push   %ebp
 51b:	89 e5                	mov    %esp,%ebp
 51d:	83 ec 14             	sub    $0x14,%esp
 520:	50                   	push   %eax
 521:	ff d2                	call   *%edx
 523:	83 c4 10             	add    $0x10,%esp
 526:	c9                   	leave  
 527:	e9 24 ff ff ff       	jmp    450 <register_tm_clones>

0000052c <__x86.get_pc_thunk.dx>:
 52c:	8b 14 24             	mov    (%esp),%edx
 52f:	c3                   	ret    

00000530 <test_simple>:
 530:	8b 54 24 04          	mov    0x4(%esp),%edx
 534:	b8 01 00 00 00       	mov    $0x1,%eax
 539:	80 3a 42             	cmpb   $0x42,(%edx)
 53c:	75 0c                	jne    54a <test_simple+0x1a>
 53e:	31 c0                	xor    %eax,%eax
 540:	80 7a 01 41          	cmpb   $0x41,0x1(%edx)
 544:	0f 94 c0             	sete   %al
 547:	83 c0 01             	add    $0x1,%eax
 54a:	a3 00 00 00 00       	mov    %eax,0x0
			54b: R_386_32	x
 54f:	c3                   	ret    

00000550 <Payload>:
 550:	55                   	push   %ebp
 551:	89 e5                	mov    %esp,%ebp
 553:	83 ec 08             	sub    $0x8,%esp
 556:	83 ec 0c             	sub    $0xc,%esp
 559:	68 00 00 00 00       	push   $0x0
			55a: R_386_32	payloadBuffer
 55e:	e8 fc ff ff ff       	call   55f <Payload+0xf>
			55f: R_386_PC32	test_simple
 563:	83 c4 10             	add    $0x10,%esp
 566:	b8 00 00 00 00       	mov    $0x0,%eax
 56b:	c9                   	leave  
 56c:	c3                   	ret    

0000056d <_Z6somainv>:
 56d:	55                   	push   %ebp
 56e:	89 e5                	mov    %esp,%ebp
 570:	90                   	nop
 571:	5d                   	pop    %ebp
 572:	c3                   	ret    

Disassembly of section .fini:

00000574 <_fini>:
 574:	53                   	push   %ebx
 575:	83 ec 08             	sub    $0x8,%esp
 578:	e8 83 fe ff ff       	call   400 <__x86.get_pc_thunk.bx>
 57d:	81 c3 83 1a 00 00    	add    $0x1a83,%ebx
 583:	83 c4 08             	add    $0x8,%esp
 586:	5b                   	pop    %ebx
 587:	c3                   	ret    

Disassembly of section .eh_frame_hdr:

00000588 <__GNU_EH_FRAME_HDR>:
 588:	01 1b                	add    %ebx,(%ebx)
 58a:	03 3b                	add    (%ebx),%edi
 58c:	28 00                	sub    %al,(%eax)
 58e:	00 00                	add    %al,(%eax)
 590:	04 00                	add    $0x0,%al
 592:	00 00                	add    %al,(%eax)
 594:	58                   	pop    %eax
 595:	fe                   	(bad)  
 596:	ff                   	(bad)  
 597:	ff 44 00 00          	incl   0x0(%eax,%eax,1)
 59b:	00 a8 ff ff ff 68    	add    %ch,0x68ffffff(%eax)
 5a1:	00 00                	add    %al,(%eax)
 5a3:	00 c8                	add    %cl,%al
 5a5:	ff                   	(bad)  
 5a6:	ff                   	(bad)  
 5a7:	ff                   	(bad)  
 5a8:	7c 00                	jl     5aa <__GNU_EH_FRAME_HDR+0x22>
 5aa:	00 00                	add    %al,(%eax)
 5ac:	e5 ff                	in     $0xff,%eax
 5ae:	ff                   	(bad)  
 5af:	ff                   	.byte 0xff
 5b0:	9c                   	pushf  
 5b1:	00 00                	add    %al,(%eax)
	...

Disassembly of section .eh_frame:

000005b4 <__FRAME_END__-0x90>:
 5b4:	14 00                	adc    $0x0,%al
 5b6:	00 00                	add    %al,(%eax)
 5b8:	00 00                	add    %al,(%eax)
 5ba:	00 00                	add    %al,(%eax)
 5bc:	01 7a 52             	add    %edi,0x52(%edx)
 5bf:	00 01                	add    %al,(%ecx)
 5c1:	7c 08                	jl     5cb <__GNU_EH_FRAME_HDR+0x43>
 5c3:	01 1b                	add    %ebx,(%ebx)
 5c5:	0c 04                	or     $0x4,%al
 5c7:	04 88                	add    $0x88,%al
 5c9:	01 00                	add    %eax,(%eax)
 5cb:	00 20                	add    %ah,(%eax)
 5cd:	00 00                	add    %al,(%eax)
 5cf:	00 1c 00             	add    %bl,(%eax,%eax,1)
 5d2:	00 00                	add    %al,(%eax)
 5d4:	0c fe                	or     $0xfe,%al
 5d6:	ff                   	(bad)  
 5d7:	ff 10                	call   *(%eax)
 5d9:	00 00                	add    %al,(%eax)
 5db:	00 00                	add    %al,(%eax)
 5dd:	0e                   	push   %cs
 5de:	08 46 0e             	or     %al,0xe(%esi)
 5e1:	0c 4a                	or     $0x4a,%al
 5e3:	0f 0b                	ud2    
 5e5:	74 04                	je     5eb <__GNU_EH_FRAME_HDR+0x63>
 5e7:	78 00                	js     5e9 <__GNU_EH_FRAME_HDR+0x61>
 5e9:	3f                   	aas    
 5ea:	1a 3b                	sbb    (%ebx),%bh
 5ec:	2a 32                	sub    (%edx),%dh
 5ee:	24 22                	and    $0x22,%al
 5f0:	10 00                	adc    %al,(%eax)
 5f2:	00 00                	add    %al,(%eax)
 5f4:	40                   	inc    %eax
 5f5:	00 00                	add    %al,(%eax)
 5f7:	00 38                	add    %bh,(%eax)
 5f9:	ff                   	(bad)  
 5fa:	ff                   	(bad)  
 5fb:	ff 20                	jmp    *(%eax)
 5fd:	00 00                	add    %al,(%eax)
 5ff:	00 00                	add    %al,(%eax)
 601:	00 00                	add    %al,(%eax)
 603:	00 1c 00             	add    %bl,(%eax,%eax,1)
 606:	00 00                	add    %al,(%eax)
 608:	54                   	push   %esp
 609:	00 00                	add    %al,(%eax)
 60b:	00 44 ff ff          	add    %al,-0x1(%edi,%edi,8)
 60f:	ff 1d 00 00 00 00    	lcall  *0x0
 615:	41                   	inc    %ecx
 616:	0e                   	push   %cs
 617:	08 85 02 42 0d 05    	or     %al,0x50d4202(%ebp)
 61d:	59                   	pop    %ecx
 61e:	c5 0c 04             	lds    (%esp,%eax,1),%ecx
 621:	04 00                	add    $0x0,%al
 623:	00 1c 00             	add    %bl,(%eax,%eax,1)
 626:	00 00                	add    %al,(%eax)
 628:	74 00                	je     62a <__GNU_EH_FRAME_HDR+0xa2>
 62a:	00 00                	add    %al,(%eax)
 62c:	41                   	inc    %ecx
 62d:	ff                   	(bad)  
 62e:	ff                   	(bad)  
 62f:	ff 06                	incl   (%esi)
 631:	00 00                	add    %al,(%eax)
 633:	00 00                	add    %al,(%eax)
 635:	41                   	inc    %ecx
 636:	0e                   	push   %cs
 637:	08 85 02 42 0d 05    	or     %al,0x50d4202(%ebp)
 63d:	42                   	inc    %edx
 63e:	c5 0c 04             	lds    (%esp,%eax,1),%ecx
 641:	04 00                	add    $0x0,%al
	...

00000644 <__FRAME_END__>:
 644:	00 00                	add    %al,(%eax)
	...

Disassembly of section .init_array:

00001f24 <__frame_dummy_init_array_entry>:
    1f24:	f0 04 00             	lock add $0x0,%al
			1f24: R_386_RELATIVE	*ABS*
    1f27:	00 00                	add    %al,(%eax)
			1f28: R_386_32	_Z6somainv
    1f29:	00 00                	add    %al,(%eax)
	...

Disassembly of section .fini_array:

00001f2c <__do_global_dtors_aux_fini_array_entry>:
    1f2c:	a0                   	.byte 0xa0
			1f2c: R_386_RELATIVE	*ABS*
    1f2d:	04 00                	add    $0x0,%al
	...

Disassembly of section .jcr:

00001f30 <__JCR_END__>:
    1f30:	00 00                	add    %al,(%eax)
	...

Disassembly of section .dynamic:

00001f34 <_DYNAMIC>:
    1f34:	0e                   	push   %cs
    1f35:	00 00                	add    %al,(%eax)
    1f37:	00 bc 00 00 00 0c 00 	add    %bh,0xc0000(%eax,%eax,1)
    1f3e:	00 00                	add    %al,(%eax)
    1f40:	bc 03 00 00 0d       	mov    $0xd000003,%esp
    1f45:	00 00                	add    %al,(%eax)
    1f47:	00 74 05 00          	add    %dh,0x0(%ebp,%eax,1)
    1f4b:	00 19                	add    %bl,(%ecx)
    1f4d:	00 00                	add    %al,(%eax)
    1f4f:	00 24 1f             	add    %ah,(%edi,%ebx,1)
    1f52:	00 00                	add    %al,(%eax)
    1f54:	1b 00                	sbb    (%eax),%eax
    1f56:	00 00                	add    %al,(%eax)
    1f58:	08 00                	or     %al,(%eax)
    1f5a:	00 00                	add    %al,(%eax)
    1f5c:	1a 00                	sbb    (%eax),%al
    1f5e:	00 00                	add    %al,(%eax)
    1f60:	2c 1f                	sub    $0x1f,%al
    1f62:	00 00                	add    %al,(%eax)
    1f64:	1c 00                	sbb    $0x0,%al
    1f66:	00 00                	add    %al,(%eax)
    1f68:	04 00                	add    $0x0,%al
    1f6a:	00 00                	add    %al,(%eax)
    1f6c:	f5                   	cmc    
    1f6d:	fe                   	(bad)  
    1f6e:	ff 6f 38             	ljmp   *0x38(%edi)
    1f71:	01 00                	add    %eax,(%eax)
    1f73:	00 05 00 00 00 84    	add    %al,0x84000000
    1f79:	02 00                	add    (%eax),%al
    1f7b:	00 06                	add    %al,(%esi)
    1f7d:	00 00                	add    %al,(%eax)
    1f7f:	00 84 01 00 00 0a 00 	add    %al,0xa0000(%ecx,%eax,1)
    1f86:	00 00                	add    %al,(%eax)
    1f88:	d5 00                	aad    $0x0
    1f8a:	00 00                	add    %al,(%eax)
    1f8c:	0b 00                	or     (%eax),%eax
    1f8e:	00 00                	add    %al,(%eax)
    1f90:	10 00                	adc    %al,(%eax)
    1f92:	00 00                	add    %al,(%eax)
    1f94:	03 00                	add    (%eax),%eax
    1f96:	00 00                	add    %al,(%eax)
    1f98:	00 20                	add    %ah,(%eax)
    1f9a:	00 00                	add    %al,(%eax)
    1f9c:	11 00                	adc    %eax,(%eax)
    1f9e:	00 00                	add    %al,(%eax)
    1fa0:	5c                   	pop    %esp
    1fa1:	03 00                	add    (%eax),%eax
    1fa3:	00 12                	add    %dl,(%edx)
    1fa5:	00 00                	add    %al,(%eax)
    1fa7:	00 60 00             	add    %ah,0x0(%eax)
    1faa:	00 00                	add    %al,(%eax)
    1fac:	13 00                	adc    (%eax),%eax
    1fae:	00 00                	add    %al,(%eax)
    1fb0:	08 00                	or     %al,(%eax)
    1fb2:	00 00                	add    %al,(%eax)
    1fb4:	16                   	push   %ss
    1fb5:	00 00                	add    %al,(%eax)
    1fb7:	00 00                	add    %al,(%eax)
    1fb9:	00 00                	add    %al,(%eax)
    1fbb:	00 fa                	add    %bh,%dl
    1fbd:	ff                   	(bad)  
    1fbe:	ff 6f 03             	ljmp   *0x3(%edi)
	...

Disassembly of section .got:

00001fec <.got>:
	...
			1fec: R_386_GLOB_DAT	__cxa_finalize
			1ff0: R_386_GLOB_DAT	_ITM_registerTMCloneTable
			1ff4: R_386_GLOB_DAT	_ITM_deregisterTMCloneTable
			1ff8: R_386_GLOB_DAT	_Jv_RegisterClasses
			1ffc: R_386_GLOB_DAT	__gmon_start__

Disassembly of section .got.plt:

00002000 <_GLOBAL_OFFSET_TABLE_>:
    2000:	34 1f                	xor    $0x1f,%al
	...

Disassembly of section .data:

0000200c <__dso_handle>:
    200c:	0c 20                	or     $0x20,%al
			200c: R_386_RELATIVE	*ABS*
	...

Disassembly of section .bss:

00002020 <completed.7209>:
	...

00002040 <payloadBuffer>:
	...

00012040 <x>:
   12040:	00 00                	add    %al,(%eax)
	...

Disassembly of section .comment:

00000000 <.comment>:
   0:	47                   	inc    %edi
   1:	43                   	inc    %ebx
   2:	43                   	inc    %ebx
   3:	3a 20                	cmp    (%eax),%ah
   5:	28 55 62             	sub    %dl,0x62(%ebp)
   8:	75 6e                	jne    78 <_init-0x344>
   a:	74 75                	je     81 <_init-0x33b>
   c:	20 35 2e 34 2e 30    	and    %dh,0x302e342e
  12:	2d 36 75 62 75       	sub    $0x75627536,%eax
  17:	6e                   	outsb  %ds:(%esi),(%dx)
  18:	74 75                	je     8f <_init-0x32d>
  1a:	31 7e 31             	xor    %edi,0x31(%esi)
  1d:	36 2e 30 34 2e       	ss xor %dh,%cs:(%esi,%ebp,1)
  22:	31 31                	xor    %esi,(%ecx)
  24:	29 20                	sub    %esp,(%eax)
  26:	35 2e 34 2e 30       	xor    $0x302e342e,%eax
  2b:	20 32                	and    %dh,(%edx)
  2d:	30 31                	xor    %dh,(%ecx)
  2f:	36 30 36             	xor    %dh,%ss:(%esi)
  32:	30 39                	xor    %bh,(%ecx)
	...

Disassembly of section .debug_aranges:

00000000 <.debug_aranges>:
   0:	1c 00                	sbb    $0x0,%al
   2:	00 00                	add    %al,(%eax)
   4:	02 00                	add    (%eax),%al
   6:	00 00                	add    %al,(%eax)
   8:	00 00                	add    %al,(%eax)
   a:	04 00                	add    $0x0,%al
   c:	00 00                	add    %al,(%eax)
   e:	00 00                	add    %al,(%eax)
  10:	30 05 00 00 20 00    	xor    %al,0x200000
	...
  1e:	00 00                	add    %al,(%eax)
  20:	1c 00                	sbb    $0x0,%al
  22:	00 00                	add    %al,(%eax)
  24:	02 00                	add    (%eax),%al
  26:	f2 02 00             	repnz add (%eax),%al
  29:	00 04 00             	add    %al,(%eax,%eax,1)
  2c:	00 00                	add    %al,(%eax)
  2e:	00 00                	add    %al,(%eax)
  30:	50                   	push   %eax
  31:	05 00 00 23 00       	add    $0x230000,%eax
	...

Disassembly of section .debug_info:

00000000 <.debug_info>:
   0:	ee                   	out    %al,(%dx)
   1:	02 00                	add    (%eax),%al
   3:	00 04 00             	add    %al,(%eax,%eax,1)
   6:	00 00                	add    %al,(%eax)
   8:	00 00                	add    %al,(%eax)
   a:	04 01                	add    $0x1,%al
   c:	fb                   	sti    
   d:	00 00                	add    %al,(%eax)
   f:	00 0c 21             	add    %cl,(%ecx,%eiz,1)
  12:	00 00                	add    %al,(%eax)
  14:	00 30                	add    %dh,(%eax)
  16:	05 00 00 20 00       	add    $0x200000,%eax
  1b:	00 00                	add    %al,(%eax)
  1d:	00 00                	add    %al,(%eax)
  1f:	00 00                	add    %al,(%eax)
  21:	02 8e 00 00 00 02    	add    0x2000000(%esi),%cl
  27:	d8 2c 00             	fsubrs (%eax,%eax,1)
  2a:	00 00                	add    %al,(%eax)
  2c:	03 04 07             	add    (%edi,%eax,1),%eax
  2f:	79 01                	jns    32 <_init-0x38a>
  31:	00 00                	add    %al,(%eax)
  33:	03 01                	add    (%ecx),%eax
  35:	08 61 01             	or     %ah,0x1(%ecx)
  38:	00 00                	add    %al,(%eax)
  3a:	03 02                	add    (%edx),%eax
  3c:	07                   	pop    %es
  3d:	cc                   	int3   
  3e:	01 00                	add    %eax,(%eax)
  40:	00 03                	add    %al,(%ebx)
  42:	04 07                	add    $0x7,%al
  44:	74 01                	je     47 <_init-0x375>
  46:	00 00                	add    %al,(%eax)
  48:	03 01                	add    (%ecx),%eax
  4a:	06                   	push   %es
  4b:	63 01                	arpl   %ax,(%ecx)
  4d:	00 00                	add    %al,(%eax)
  4f:	03 02                	add    (%edx),%eax
  51:	05 84 00 00 00       	add    $0x84,%eax
  56:	04 04                	add    $0x4,%al
  58:	05 69 6e 74 00       	add    $0x746e69,%eax
  5d:	03 08                	add    (%eax),%ecx
  5f:	05 d6 00 00 00       	add    $0xd6,%eax
  64:	03 08                	add    (%eax),%ecx
  66:	07                   	pop    %es
  67:	6f                   	outsl  %ds:(%esi),(%dx)
  68:	01 00                	add    %eax,(%eax)
  6a:	00 02                	add    %al,(%edx)
  6c:	0c 00                	or     $0x0,%al
  6e:	00 00                	add    %al,(%eax)
  70:	03 37                	add    (%edi),%esi
  72:	5d                   	pop    %ebp
  73:	00 00                	add    %al,(%eax)
  75:	00 02                	add    %al,(%edx)
  77:	20 02                	and    %al,(%edx)
  79:	00 00                	add    %al,(%eax)
  7b:	03 83 81 00 00 00    	add    0x81(%ebx),%eax
  81:	03 04 05 db 00 00 00 	add    0xdb(,%eax,1),%eax
  88:	02 16                	add    (%esi),%dl
  8a:	02 00                	add    (%eax),%al
  8c:	00 03                	add    %al,(%ebx)
  8e:	84 6b 00             	test   %ch,0x0(%ebx)
  91:	00 00                	add    %al,(%eax)
  93:	03 04 07             	add    (%edi,%eax,1),%eax
  96:	95                   	xchg   %eax,%ebp
  97:	00 00                	add    %al,(%eax)
  99:	00 05 04 06 04 a2    	add    %al,0xa2040604
  9f:	00 00                	add    %al,(%eax)
  a1:	00 03                	add    %al,(%ebx)
  a3:	01 06                	add    %eax,(%esi)
  a5:	6a 01                	push   $0x1
  a7:	00 00                	add    %al,(%eax)
  a9:	07                   	pop    %es
  aa:	58                   	pop    %eax
  ab:	01 00                	add    %eax,(%eax)
  ad:	00 94 04 f1 26 02 00 	add    %dl,0x226f1(%esp,%eax,1)
  b4:	00 08                	add    %cl,(%eax)
  b6:	ac                   	lods   %ds:(%esi),%al
  b7:	00 00                	add    %al,(%eax)
  b9:	00 04 f2             	add    %al,(%edx,%esi,8)
  bc:	56                   	push   %esi
  bd:	00 00                	add    %al,(%eax)
  bf:	00 00                	add    %al,(%eax)
  c1:	08 b3 01 00 00 04    	or     %dh,0x4000001(%ebx)
  c7:	f7 9c 00 00 00 04 08 	negl   0x8040000(%eax,%eax,1)
  ce:	c9                   	leave  
  cf:	00 00                	add    %al,(%eax)
  d1:	00 04 f8             	add    %al,(%eax,%edi,8)
  d4:	9c                   	pushf  
  d5:	00 00                	add    %al,(%eax)
  d7:	00 08                	add    %cl,(%eax)
  d9:	08 53 02             	or     %dl,0x2(%ebx)
  dc:	00 00                	add    %al,(%eax)
  de:	04 f9                	add    $0xf9,%al
  e0:	9c                   	pushf  
  e1:	00 00                	add    %al,(%eax)
  e3:	00 0c 08             	add    %cl,(%eax,%ecx,1)
  e6:	9b                   	fwait
  e7:	01 00                	add    %eax,(%eax)
  e9:	00 04 fa             	add    %al,(%edx,%edi,8)
  ec:	9c                   	pushf  
  ed:	00 00                	add    %al,(%eax)
  ef:	00 10                	add    %dl,(%eax)
  f1:	08 9e 00 00 00 04    	or     %bl,0x4000000(%esi)
  f7:	fb                   	sti    
  f8:	9c                   	pushf  
  f9:	00 00                	add    %al,(%eax)
  fb:	00 14 08             	add    %dl,(%eax,%ecx,1)
  fe:	08 02                	or     %al,(%edx)
 100:	00 00                	add    %al,(%eax)
 102:	04 fc                	add    $0xfc,%al
 104:	9c                   	pushf  
 105:	00 00                	add    %al,(%eax)
 107:	00 18                	add    %bl,(%eax)
 109:	08 b3 00 00 00 04    	or     %dh,0x4000000(%ebx)
 10f:	fd                   	std    
 110:	9c                   	pushf  
 111:	00 00                	add    %al,(%eax)
 113:	00 1c 08             	add    %bl,(%eax,%ecx,1)
 116:	00 00                	add    %al,(%eax)
 118:	00 00                	add    %al,(%eax)
 11a:	04 fe                	add    $0xfe,%al
 11c:	9c                   	pushf  
 11d:	00 00                	add    %al,(%eax)
 11f:	00 20                	add    %ah,(%eax)
 121:	09 70 02             	or     %esi,0x2(%eax)
 124:	00 00                	add    %al,(%eax)
 126:	04 00                	add    $0x0,%al
 128:	01 9c 00 00 00 24 09 	add    %ebx,0x9240000(%eax,%eax,1)
 12f:	2f                   	das    
 130:	02 00                	add    (%eax),%al
 132:	00 04 01             	add    %al,(%ecx,%eax,1)
 135:	01 9c 00 00 00 28 09 	add    %ebx,0x9280000(%eax,%eax,1)
 13c:	77 00                	ja     13e <_init-0x27e>
 13e:	00 00                	add    %al,(%eax)
 140:	04 02                	add    $0x2,%al
 142:	01 9c 00 00 00 2c 09 	add    %ebx,0x92c0000(%eax,%eax,1)
 149:	c0 00 00             	rolb   $0x0,(%eax)
 14c:	00 04 04             	add    %al,(%esp,%eax,1)
 14f:	01 5e 02             	add    %ebx,0x2(%esi)
 152:	00 00                	add    %al,(%eax)
 154:	30 09                	xor    %cl,(%ecx)
 156:	28 02                	sub    %al,(%edx)
 158:	00 00                	add    %al,(%eax)
 15a:	04 06                	add    $0x6,%al
 15c:	01 64 02 00          	add    %esp,0x0(%edx,%eax,1)
 160:	00 34 09             	add    %dh,(%ecx,%ecx,1)
 163:	7e 02                	jle    167 <_init-0x255>
 165:	00 00                	add    %al,(%eax)
 167:	04 08                	add    $0x8,%al
 169:	01 56 00             	add    %edx,0x0(%esi)
 16c:	00 00                	add    %al,(%eax)
 16e:	38 09                	cmp    %cl,(%ecx)
 170:	45                   	inc    %ebp
 171:	02 00                	add    (%eax),%al
 173:	00 04 0c             	add    %al,(%esp,%ecx,1)
 176:	01 56 00             	add    %edx,0x0(%esi)
 179:	00 00                	add    %al,(%eax)
 17b:	3c 09                	cmp    $0x9,%al
 17d:	15 00 00 00 04       	adc    $0x4000000,%eax
 182:	0e                   	push   %cs
 183:	01 76 00             	add    %esi,0x0(%esi)
 186:	00 00                	add    %al,(%eax)
 188:	40                   	inc    %eax
 189:	09 ea                	or     %ebp,%edx
 18b:	00 00                	add    %al,(%eax)
 18d:	00 04 12             	add    %al,(%edx,%edx,1)
 190:	01 3a                	add    %edi,(%edx)
 192:	00 00                	add    %al,(%eax)
 194:	00 44 09 61          	add    %al,0x61(%ecx,%ecx,1)
 198:	02 00                	add    (%eax),%al
 19a:	00 04 13             	add    %al,(%ebx,%edx,1)
 19d:	01 48 00             	add    %ecx,0x0(%eax)
 1a0:	00 00                	add    %al,(%eax)
 1a2:	46                   	inc    %esi
 1a3:	09 91 01 00 00 04    	or     %edx,0x4000001(%ecx)
 1a9:	14 01                	adc    $0x1,%al
 1ab:	6a 02                	push   $0x2
 1ad:	00 00                	add    %al,(%eax)
 1af:	47                   	inc    %edi
 1b0:	09 e4                	or     %esp,%esp
 1b2:	00 00                	add    %al,(%eax)
 1b4:	00 04 18             	add    %al,(%eax,%ebx,1)
 1b7:	01 7a 02             	add    %edi,0x2(%edx)
 1ba:	00 00                	add    %al,(%eax)
 1bc:	48                   	dec    %eax
 1bd:	09 19                	or     %ebx,(%ecx)
 1bf:	00 00                	add    %al,(%eax)
 1c1:	00 04 21             	add    %al,(%ecx,%eiz,1)
 1c4:	01 88 00 00 00 4c    	add    %ecx,0x4c000000(%eax)
 1ca:	09 e5                	or     %esp,%ebp
 1cc:	01 00                	add    %eax,(%eax)
 1ce:	00 04 29             	add    %al,(%ecx,%ebp,1)
 1d1:	01 9a 00 00 00 54    	add    %ebx,0x54000000(%edx)
 1d7:	09 ec                	or     %ebp,%esp
 1d9:	01 00                	add    %eax,(%eax)
 1db:	00 04 2a             	add    %al,(%edx,%ebp,1)
 1de:	01 9a 00 00 00 58    	add    %ebx,0x58000000(%edx)
 1e4:	09 f3                	or     %esi,%ebx
 1e6:	01 00                	add    %eax,(%eax)
 1e8:	00 04 2b             	add    %al,(%ebx,%ebp,1)
 1eb:	01 9a 00 00 00 5c    	add    %ebx,0x5c000000(%edx)
 1f1:	09 fa                	or     %edi,%edx
 1f3:	01 00                	add    %eax,(%eax)
 1f5:	00 04 2c             	add    %al,(%esp,%ebp,1)
 1f8:	01 9a 00 00 00 60    	add    %ebx,0x60000000(%edx)
 1fe:	09 01                	or     %eax,(%ecx)
 200:	02 00                	add    (%eax),%al
 202:	00 04 2e             	add    %al,(%esi,%ebp,1)
 205:	01 21                	add    %esp,(%ecx)
 207:	00 00                	add    %al,(%eax)
 209:	00 64 09 4d          	add    %ah,0x4d(%ecx,%ecx,1)
 20d:	02 00                	add    (%eax),%al
 20f:	00 04 2f             	add    %al,(%edi,%ebp,1)
 212:	01 56 00             	add    %edx,0x0(%esi)
 215:	00 00                	add    %al,(%eax)
 217:	68 09 aa 01 00       	push   $0x1aa09
 21c:	00 04 31             	add    %al,(%ecx,%esi,1)
 21f:	01 80 02 00 00 6c    	add    %eax,0x6c000002(%eax)
 225:	00 0a                	add    %cl,(%edx)
 227:	8d 02                	lea    (%edx),%eax
 229:	00 00                	add    %al,(%eax)
 22b:	04 96                	add    $0x96,%al
 22d:	07                   	pop    %es
 22e:	86 01                	xchg   %al,(%ecx)
 230:	00 00                	add    %al,(%eax)
 232:	0c 04                	or     $0x4,%al
 234:	9c                   	pushf  
 235:	5e                   	pop    %esi
 236:	02 00                	add    (%eax),%al
 238:	00 08                	add    %cl,(%eax)
 23a:	df 01                	fild   (%ecx)
 23c:	00 00                	add    %al,(%eax)
 23e:	04 9d                	add    $0x9d,%al
 240:	5e                   	pop    %esi
 241:	02 00                	add    (%eax),%al
 243:	00 00                	add    %al,(%eax)
 245:	08 52 01             	or     %dl,0x1(%edx)
 248:	00 00                	add    %al,(%eax)
 24a:	04 9e                	add    $0x9e,%al
 24c:	64 02 00             	add    %fs:(%eax),%al
 24f:	00 04 08             	add    %al,(%eax,%ecx,1)
 252:	f6 00 00             	testb  $0x0,(%eax)
 255:	00 04 a2             	add    %al,(%edx,%eiz,4)
 258:	56                   	push   %esi
 259:	00 00                	add    %al,(%eax)
 25b:	00 08                	add    %cl,(%eax)
 25d:	00 06                	add    %al,(%esi)
 25f:	04 2d                	add    $0x2d,%al
 261:	02 00                	add    (%eax),%al
 263:	00 06                	add    %al,(%esi)
 265:	04 a9                	add    $0xa9,%al
 267:	00 00                	add    %al,(%eax)
 269:	00 0b                	add    %cl,(%ebx)
 26b:	a2 00 00 00 7a       	mov    %al,0x7a000000
 270:	02 00                	add    (%eax),%al
 272:	00 0c 93             	add    %cl,(%ebx,%edx,4)
 275:	00 00                	add    %al,(%eax)
 277:	00 00                	add    %al,(%eax)
 279:	00 06                	add    %al,(%esi)
 27b:	04 26                	add    $0x26,%al
 27d:	02 00                	add    (%eax),%al
 27f:	00 0b                	add    %cl,(%ebx)
 281:	a2 00 00 00 90       	mov    %al,0x90000000
 286:	02 00                	add    (%eax),%al
 288:	00 0c 93             	add    %cl,(%ebx,%edx,4)
 28b:	00 00                	add    %al,(%eax)
 28d:	00 27                	add    %ah,(%edi)
 28f:	00 0d c0 01 00 00    	add    %cl,0x1c0
 295:	01 05 30 05 00 00    	add    %eax,0x530
 29b:	20 00                	and    %al,(%eax)
 29d:	00 00                	add    %al,(%eax)
 29f:	01 9c c1 02 00 00 0e 	add    %ebx,0xe000002(%ecx,%eax,8)
 2a6:	62 75 66             	bound  %esi,0x66(%ebp)
 2a9:	00 01                	add    %al,(%ecx)
 2ab:	05 c1 02 00 00       	add    $0x2c1,%eax
 2b0:	02 91 00 0f 69 00    	add    0x690f00(%ecx),%dl
 2b6:	01 06                	add    %eax,(%esi)
 2b8:	56                   	push   %esi
	...
 2c1:	06                   	push   %es
 2c2:	04 c7                	add    $0xc7,%al
 2c4:	02 00                	add    (%eax),%al
 2c6:	00 10                	add    %dl,(%eax)
 2c8:	33 00                	xor    (%eax),%eax
 2ca:	00 00                	add    %al,(%eax)
 2cc:	11 3f                	adc    %edi,(%edi)
 2ce:	02 00                	add    (%eax),%al
 2d0:	00 05 a8 64 02 00    	add    %al,0x264a8
 2d6:	00 11                	add    %dl,(%ecx)
 2d8:	86 02                	xchg   %al,(%edx)
 2da:	00 00                	add    %al,(%eax)
 2dc:	05 a9 64 02 00       	add    $0x264a9,%eax
 2e1:	00 12                	add    %dl,(%edx)
 2e3:	78 00                	js     2e5 <_init-0xd7>
 2e5:	01 04 56             	add    %eax,(%esi,%edx,2)
 2e8:	00 00                	add    %al,(%eax)
 2ea:	00 05 03 40 20 01    	add    %al,0x1204003
 2f0:	00 00                	add    %al,(%eax)
 2f2:	a1 06 00 00 04       	mov    0x4000006,%eax
 2f7:	00 f0                	add    %dh,%al
 2f9:	00 00                	add    %al,(%eax)
 2fb:	00 04 01             	add    %al,(%ecx,%eax,1)
 2fe:	57                   	push   %edi
 2ff:	0c 00                	or     $0x0,%al
 301:	00 04 8c             	add    %al,(%esp,%ecx,4)
 304:	13 00                	adc    (%eax),%eax
 306:	00 50 05             	add    %dl,0x5(%eax)
 309:	00 00                	add    %al,(%eax)
 30b:	23 00                	and    (%eax),%eax
 30d:	00 00                	add    %al,(%eax)
 30f:	fc                   	cld    
 310:	00 00                	add    %al,(%eax)
 312:	00 02                	add    %al,(%edx)
 314:	01 08                	add    %ecx,(%eax)
 316:	61                   	popa   
 317:	01 00                	add    %eax,(%eax)
 319:	00 02                	add    %al,(%edx)
 31b:	02 07                	add    (%edi),%al
 31d:	cc                   	int3   
 31e:	01 00                	add    %eax,(%eax)
 320:	00 02                	add    %al,(%edx)
 322:	04 07                	add    $0x7,%al
 324:	79 01                	jns    327 <_init-0x95>
 326:	00 00                	add    %al,(%eax)
 328:	02 04 07             	add    (%edi,%eax,1),%al
 32b:	74 01                	je     32e <_init-0x8e>
 32d:	00 00                	add    %al,(%eax)
 32f:	02 01                	add    (%ecx),%al
 331:	06                   	push   %es
 332:	63 01                	arpl   %ax,(%ecx)
 334:	00 00                	add    %al,(%eax)
 336:	02 02                	add    (%edx),%al
 338:	05 84 00 00 00       	add    $0x84,%eax
 33d:	03 04 05 69 6e 74 00 	add    0x746e69(,%eax,1),%eax
 344:	02 08                	add    (%eax),%cl
 346:	05 d6 00 00 00       	add    $0xd6,%eax
 34b:	02 08                	add    (%eax),%cl
 34d:	07                   	pop    %es
 34e:	6f                   	outsl  %ds:(%esi),(%dx)
 34f:	01 00                	add    %eax,(%eax)
 351:	00 02                	add    %al,(%edx)
 353:	04 05                	add    $0x5,%al
 355:	db 00                	fildl  (%eax)
 357:	00 00                	add    %al,(%eax)
 359:	02 04 07             	add    (%edi,%eax,1),%al
 35c:	95                   	xchg   %eax,%ebp
 35d:	00 00                	add    %al,(%eax)
 35f:	00 02                	add    %al,(%edx)
 361:	01 06                	add    %eax,(%esi)
 363:	6a 01                	push   $0x1
 365:	00 00                	add    %al,(%eax)
 367:	04 e2                	add    $0xe2,%al
 369:	10 00                	adc    %al,(%eax)
 36b:	00 04 2f             	add    %al,(%edi,%ebp,1)
 36e:	00 00                	add    %al,(%eax)
 370:	00 04 02             	add    %al,(%edx,%eax,1)
 373:	01 9f 00 00 00 05    	add    %ebx,0x5000000(%edi)
 379:	e9 08 00 00 00       	jmp    386 <_init-0x36>
 37e:	05 f1 0b 00 00       	add    $0xbf1,%eax
 383:	01 05 3a 0e 00 00    	add    %eax,0xe3a
 389:	02 05 80 0f 00 00    	add    0xf80,%al
 38f:	02 00                	add    (%eax),%al
 391:	06                   	push   %es
 392:	04 2f                	add    $0x2f,%al
 394:	00 00                	add    %al,(%eax)
 396:	00 02                	add    %al,(%edx)
 398:	48                   	dec    %eax
 399:	b6 05                	mov    $0x5,%dh
 39b:	00 00                	add    %al,(%eax)
 39d:	05 25 04 00 00       	add    $0x425,%eax
 3a2:	00 05 e6 02 00 00    	add    %al,0x2e6
 3a8:	01 05 f4 02 00 00    	add    %eax,0x2f4
 3ae:	02 05 b8 12 00 00    	add    0x12b8,%al
 3b4:	03 05 f8 04 00 00    	add    0x4f8,%eax
 3ba:	04 05                	add    $0x5,%al
 3bc:	8c 0f                	mov    %cs,(%edi)
 3be:	00 00                	add    %al,(%eax)
 3c0:	05 05 9b 0f 00       	add    $0xf9b05,%eax
 3c5:	00 06                	add    %al,(%esi)
 3c7:	05 6a 03 00 00       	add    $0x36a,%eax
 3cc:	07                   	pop    %es
 3cd:	05 09 04 00 00       	add    $0x409,%eax
 3d2:	08 05 c4 0c 00 00    	or     %al,0xcc4
 3d8:	09 05 10 13 00 00    	or     %eax,0x1310
 3de:	0a 05 a8 11 00 00    	or     0x11a8,%al
 3e4:	0b 05 0d 09 00 00    	or     0x90d,%eax
 3ea:	0c 05                	or     $0x5,%al
 3ec:	5a                   	pop    %edx
 3ed:	0f 00 00             	sldt   (%eax)
 3f0:	0d 05 75 12 00       	or     $0x127505,%eax
 3f5:	00 0e                	add    %cl,(%esi)
 3f7:	05 c0 11 00 00       	add    $0x11c0,%eax
 3fc:	0f 05                	syscall 
 3fe:	d5 02                	aad    $0x2
 400:	00 00                	add    %al,(%eax)
 402:	10 05 3f 0d 00 00    	adc    %al,0xd3f
 408:	11 05 c9 0f 00 00    	adc    %eax,0xfc9
 40e:	12 05 e2 04 00 00    	adc    0x4e2,%al
 414:	13 05 fc 11 00 00    	adc    0x11fc,%eax
 41a:	14 05                	adc    $0x5,%al
 41c:	dd 09                	fisttpll (%ecx)
 41e:	00 00                	add    %al,(%eax)
 420:	15 05 20 0e 00       	adc    $0xe2005,%eax
 425:	00 16                	add    %dl,(%esi)
 427:	05 4b 04 00 00       	add    $0x44b,%eax
 42c:	17                   	pop    %ss
 42d:	05 ad 0d 00 00       	add    $0xdad,%eax
 432:	18 05 cb 04 00 00    	sbb    %al,0x4cb
 438:	19 05 57 0d 00 00    	sbb    %eax,0xd57
 43e:	1a 05 40 05 00 00    	sbb    0x540,%al
 444:	1b 05 73 11 00 00    	sbb    0x1173,%eax
 44a:	1c 05                	sbb    $0x5,%al
 44c:	68 08 00 00 1d       	push   $0x1d000008
 451:	05 30 07 00 00       	add    $0x730,%eax
 456:	1e                   	push   %ds
 457:	05 98 0a 00 00       	add    $0xa98,%eax
 45c:	1f                   	pop    %ds
 45d:	05 3a 0f 00 00       	add    $0xf3a,%eax
 462:	20 05 83 11 00 00    	and    %al,0x1183
 468:	21 05 00 03 00 00    	and    %eax,0x300
 46e:	22 05 a9 10 00 00    	and    0x10a9,%al
 474:	23 05 3d 12 00 00    	and    0x123d,%eax
 47a:	24 05                	and    $0x5,%al
 47c:	a0 05 00 00 25       	mov    0x25000005,%al
 481:	05 db 0f 00 00       	add    $0xfdb,%eax
 486:	26 05 26 0c 00 00    	es add $0xc26,%eax
 48c:	27                   	daa    
 48d:	05 ac 0b 00 00       	add    $0xbac,%eax
 492:	28 05 f3 12 00 00    	sub    %al,0x12f3
 498:	29 05 63 12 00 00    	sub    %eax,0x1263
 49e:	2a 05 49 0a 00 00    	sub    0xa49,%al
 4a4:	2b 05 74 07 00 00    	sub    0x774,%eax
 4aa:	2c 05                	sub    $0x5,%al
 4ac:	21 09                	and    %ecx,(%ecx)
 4ae:	00 00                	add    %al,(%eax)
 4b0:	2d 05 66 07 00       	sub    $0x76605,%eax
 4b5:	00 2e                	add    %ch,(%esi)
 4b7:	05 f9 13 00 00       	add    $0x13f9,%eax
 4bc:	2f                   	das    
 4bd:	05 cf 0b 00 00       	add    $0xbcf,%eax
 4c2:	30 05 9a 07 00 00    	xor    %al,0x79a
 4c8:	31 05 6a 0d 00 00    	xor    %eax,0xd6a
 4ce:	32 05 b7 0c 00 00    	xor    0xcb7,%al
 4d4:	33 05 39 0a 00 00    	xor    0xa39,%eax
 4da:	34 05                	xor    $0x5,%al
 4dc:	c3                   	ret    
 4dd:	04 00                	add    $0x0,%al
 4df:	00 35 05 f9 0a 00    	add    %dh,0xaf905
 4e5:	00 36                	add    %dh,(%esi)
 4e7:	05 fa 03 00 00       	add    $0x3fa,%eax
 4ec:	37                   	aaa    
 4ed:	05 85 04 00 00       	add    $0x485,%eax
 4f2:	38 05 4b 0d 00 00    	cmp    %al,0xd4b
 4f8:	39 05 ae 0c 00 00    	cmp    %eax,0xcae
 4fe:	3a 05 ca 11 00 00    	cmp    0x11ca,%al
 504:	3b 05 39 08 00 00    	cmp    0x839,%eax
 50a:	3c 05                	cmp    $0x5,%al
 50c:	b6 07                	mov    $0x7,%dh
 50e:	00 00                	add    %al,(%eax)
 510:	3c 05                	cmp    $0x5,%al
 512:	9d                   	popf   
 513:	09 00                	or     %eax,(%eax)
 515:	00 3d 05 e9 07 00    	add    %bh,0x7e905
 51b:	00 3e                	add    %bh,(%esi)
 51d:	05 62 11 00 00       	add    $0x1162,%eax
 522:	3f                   	aas    
 523:	05 63 06 00 00       	add    $0x663,%eax
 528:	40                   	inc    %eax
 529:	05 c1 0b 00 00       	add    $0xbc1,%eax
 52e:	41                   	inc    %ecx
 52f:	05 4c 0f 00 00       	add    $0xf4c,%eax
 534:	42                   	inc    %edx
 535:	05 c3 08 00 00       	add    $0x8c3,%eax
 53a:	43                   	inc    %ebx
 53b:	05 cf 08 00 00       	add    $0x8cf,%eax
 540:	44                   	inc    %esp
 541:	05 e5 03 00 00       	add    $0x3e5,%eax
 546:	45                   	inc    %ebp
 547:	05 4e 13 00 00       	add    $0x134e,%eax
			54b: R_386_32	x
 54c:	46                   	inc    %esi
 54d:	05 73 0b 00 00       	add    $0xb73,%eax
 552:	47                   	inc    %edi
 553:	05 eb 11 00 00       	add    $0x11eb,%eax
 558:	48                   	dec    %eax
 559:	05 04 0d 00 00       	add    $0xd04,%eax
			55a: R_386_32	payloadBuffer
 55e:	49                   	dec    %ecx
 55f:	05 86 0b 00 00       	add    $0xb86,%eax
			55f: R_386_PC32	test_simple
 564:	4a                   	dec    %edx
 565:	05 6a 09 00 00       	add    $0x96a,%eax
 56a:	4b                   	dec    %ebx
 56b:	05 05 05 00 00       	add    $0x505,%eax
 570:	4c                   	dec    %esp
 571:	05 af 05 00 00       	add    $0x5af,%eax
 576:	4d                   	dec    %ebp
 577:	05 06 14 00 00       	add    $0x1406,%eax
 57c:	4e                   	dec    %esi
 57d:	05 38 0c 00 00       	add    $0xc38,%eax
 582:	4f                   	dec    %edi
 583:	05 74 13 00 00       	add    $0x1374,%eax
 588:	50                   	push   %eax
 589:	05 6d 04 00 00       	add    $0x46d,%eax
 58e:	51                   	push   %ecx
 58f:	05 96 04 00 00       	add    $0x496,%eax
 594:	52                   	push   %edx
 595:	05 8b 0d 00 00       	add    $0xd8b,%eax
 59a:	53                   	push   %ebx
 59b:	05 14 0a 00 00       	add    $0xa14,%eax
 5a0:	54                   	push   %esp
 5a1:	05 56 0a 00 00       	add    $0xa56,%eax
 5a6:	55                   	push   %ebp
 5a7:	05 90 0e 00 00       	add    $0xe90,%eax
 5ac:	56                   	push   %esi
 5ad:	05 53 11 00 00       	add    $0x1153,%eax
 5b2:	57                   	push   %edi
 5b3:	05 b3 11 00 00       	add    $0x11b3,%eax
 5b8:	58                   	pop    %eax
 5b9:	05 d3 03 00 00       	add    $0x3d3,%eax
 5be:	59                   	pop    %ecx
 5bf:	05 cc 0a 00 00       	add    $0xacc,%eax
 5c4:	5a                   	pop    %edx
 5c5:	05 7f 09 00 00       	add    $0x97f,%eax
 5ca:	5b                   	pop    %ebx
 5cb:	05 50 10 00 00       	add    $0x1050,%eax
 5d0:	5c                   	pop    %esp
 5d1:	05 07 07 00 00       	add    $0x707,%eax
 5d6:	5d                   	pop    %ebp
 5d7:	05 a1 0e 00 00       	add    $0xea1,%eax
 5dc:	5e                   	pop    %esi
 5dd:	05 0e 10 00 00       	add    $0x100e,%eax
 5e2:	5f                   	pop    %edi
 5e3:	05 71 05 00 00       	add    $0x571,%eax
 5e8:	60                   	pusha  
 5e9:	05 26 07 00 00       	add    $0x726,%eax
 5ee:	61                   	popa   
 5ef:	05 cc 06 00 00       	add    $0x6cc,%eax
 5f4:	62 05 db 06 00 00    	bound  %eax,0x6db
 5fa:	63 05 ea 06 00 00    	arpl   %ax,0x6ea
 600:	64 05 3e 04 00 00    	fs add $0x43e,%eax
 606:	65 05 9e 03 00 00    	gs add $0x39e,%eax
 60c:	66 05 a9 07          	add    $0x7a9,%ax
 610:	00 00                	add    %al,(%eax)
 612:	67 05 ae 02 00 00    	addr16 add $0x2ae,%eax
 618:	68 05 1a 07 00       	push   $0x71a05
 61d:	00 69 05             	add    %ch,0x5(%ecx)
 620:	20 0b                	and    %cl,(%ebx)
 622:	00 00                	add    %al,(%eax)
 624:	6a 05                	push   $0x5
 626:	f5                   	cmc    
 627:	08 00                	or     %al,(%eax)
 629:	00 6b 05             	add    %ch,0x5(%ebx)
 62c:	5e                   	pop    %esi
 62d:	04 00                	add    $0x0,%al
 62f:	00 6c 05 a2          	add    %ch,-0x5e(%ebp,%eax,1)
 633:	06                   	push   %es
 634:	00 00                	add    %al,(%eax)
 636:	6d                   	insl   (%dx),%es:(%edi)
 637:	05 40 13 00 00       	add    $0x1340,%eax
 63c:	6e                   	outsb  %ds:(%esi),(%dx)
 63d:	05 17 04 00 00       	add    $0x417,%eax
 642:	6f                   	outsl  %ds:(%esi),(%dx)
 643:	05 2b 08 00 00       	add    $0x82b,%eax
 648:	70 05                	jo     64f <__FRAME_END__+0xb>
 64a:	a0 0d 00 00 71       	mov    0x7100000d,%al
 64f:	05 9b 12 00 00       	add    $0x129b,%eax
 654:	72 05                	jb     65b <__FRAME_END__+0x17>
 656:	43                   	inc    %ebx
 657:	0b 00                	or     (%eax),%eax
 659:	00 73 05             	add    %dh,0x5(%ebx)
 65c:	dc 05 00 00 74 05    	faddl  0x5740000
 662:	f9                   	stc    
 663:	06                   	push   %es
 664:	00 00                	add    %al,(%eax)
 666:	75 05                	jne    66d <__FRAME_END__+0x29>
 668:	fd                   	std    
 669:	0b 00                	or     (%eax),%eax
 66b:	00 76 05             	add    %dh,0x5(%esi)
 66e:	6f                   	outsl  %ds:(%esi),(%dx)
 66f:	0e                   	push   %cs
 670:	00 00                	add    %al,(%eax)
 672:	77 05                	ja     679 <__FRAME_END__+0x35>
 674:	34 06                	xor    $0x6,%al
 676:	00 00                	add    %al,(%eax)
 678:	78 05                	js     67f <__FRAME_END__+0x3b>
 67a:	55                   	push   %ebp
 67b:	06                   	push   %es
 67c:	00 00                	add    %al,(%eax)
 67e:	79 05                	jns    685 <__FRAME_END__+0x41>
 680:	ef                   	out    %eax,(%dx)
 681:	0e                   	push   %cs
 682:	00 00                	add    %al,(%eax)
 684:	7a 05                	jp     68b <__FRAME_END__+0x47>
 686:	e3 13                	jecxz  69b <__FRAME_END__+0x57>
 688:	00 00                	add    %al,(%eax)
 68a:	7b 05                	jnp    691 <__FRAME_END__+0x4d>
 68c:	8e 09                	mov    (%ecx),%cs
 68e:	00 00                	add    %al,(%eax)
 690:	7c 05                	jl     697 <__FRAME_END__+0x53>
 692:	15 11 00 00 7d       	adc    $0x7d000011,%eax
 697:	05 2d 0b 00 00       	add    $0xb2d,%eax
 69c:	7e 05                	jle    6a3 <__FRAME_END__+0x5f>
 69e:	47                   	inc    %edi
 69f:	0e                   	push   %cs
 6a0:	00 00                	add    %al,(%eax)
 6a2:	7f 05                	jg     6a9 <__FRAME_END__+0x65>
 6a4:	d9 0c 00             	(bad)  (%eax,%eax,1)
 6a7:	00 80 05 63 13 00    	add    %al,0x136305(%eax)
 6ad:	00 81 05 65 0a 00    	add    %al,0xa6505(%ecx)
 6b3:	00 82 05 05 0b 00    	add    %al,0xb0505(%edx)
 6b9:	00 83 05 9a 0b 00    	add    %al,0xb9a05(%ebx)
 6bf:	00 84 05 b9 0d 00 00 	add    %al,0xdb9(%ebp,%eax,1)
 6c6:	85 05 07 13 00 00    	test   %eax,0x1307
 6cc:	86 05 95 11 00 00    	xchg   %al,0x1195
 6d2:	87 05 7b 10 00 00    	xchg   %eax,0x107b
 6d8:	88 05 01 11 00 00    	mov    %al,0x1101
 6de:	89 05 d6 10 00 00    	mov    %eax,0x10d6
 6e4:	8a 05 c2 07 00 00    	mov    0x7c2,%al
 6ea:	8b 05 45 03 00 00    	mov    0x345,%eax
 6f0:	8c 05 0c 0e 00 00    	mov    %es,0xe0c
 6f6:	8d 05 8c 06 00 00    	lea    0x68c,%eax
 6fc:	8e 05 28 10 00 00    	mov    0x1028,%es
 702:	8f 05 50 05 00 00    	popl   0x550
 708:	90                   	nop
 709:	05 51 0b 00 00       	add    $0xb51,%eax
 70e:	91                   	xchg   %eax,%ecx
 70f:	05 a6 0a 00 00       	add    $0xaa6,%eax
 714:	92                   	xchg   %eax,%edx
 715:	05 1a 08 00 00       	add    $0x81a,%eax
 71a:	93                   	xchg   %eax,%ebx
 71b:	05 3d 07 00 00       	add    $0x73d,%eax
 720:	94                   	xchg   %eax,%esp
 721:	05 84 0a 00 00       	add    $0xa84,%eax
 726:	95                   	xchg   %eax,%ebp
 727:	05 02 0a 00 00       	add    $0xa02,%eax
 72c:	96                   	xchg   %eax,%esi
 72d:	05 7d 0e 00 00       	add    $0xe7d,%eax
 732:	97                   	xchg   %eax,%edi
 733:	05 2a 11 00 00       	add    $0x112a,%eax
 738:	98                   	cwtl   
 739:	05 1c 05 00 00       	add    $0x51c,%eax
 73e:	99                   	cltd   
 73f:	05 8d 08 00 00       	add    $0x88d,%eax
 744:	9a 05 02 09 00 00 9b 	lcall  $0x9b00,$0x90205
 74b:	05 c6 0d 00 00       	add    $0xdc6,%eax
 750:	9c                   	pushf  
 751:	05 1e 10 00 00       	add    $0x101e,%eax
 756:	9d                   	popf   
 757:	05 78 0a 00 00       	add    $0xa78,%eax
 75c:	9e                   	sahf   
 75d:	05 bf 0f 00 00       	add    $0xfbf,%eax
 762:	9f                   	lahf   
 763:	05 ed 10 00 00       	add    $0x10ed,%eax
 768:	a0 05 af 0e 00       	mov    0xeaf05,%al
 76d:	00 a1 05 d5 07 00    	add    %ah,0x7d505(%ecx)
 773:	00 a2 05 db 0b 00    	add    %ah,0xbdb05(%edx)
 779:	00 a3 05 31 04 00    	add    %ah,0x43105(%ebx)
 77f:	00 a4 05 5a 0b 00 00 	add    %ah,0xb5a(%ebp,%eax,1)
 786:	a5                   	movsl  %ds:(%esi),%es:(%edi)
 787:	05 29 0a 00 00       	add    $0xa29,%eax
 78c:	a6                   	cmpsb  %es:(%edi),%ds:(%esi)
 78d:	05 ba 0a 00 00       	add    $0xaba,%eax
 792:	a7                   	cmpsl  %es:(%edi),%ds:(%esi)
 793:	05 cc 10 00 00       	add    $0x10cc,%eax
 798:	a8 05                	test   $0x5,%al
 79a:	ef                   	out    %eax,(%dx)
 79b:	0c 00                	or     $0x0,%al
 79d:	00 a9 05 e9 05 00    	add    %ch,0x5e905(%ecx)
 7a3:	00 aa 05 28 0f 00    	add    %ch,0xf2805(%edx)
 7a9:	00 ab 05 a8 12 00    	add    %ch,0x12a805(%ebx)
 7af:	00 ac 05 fe 0f 00 00 	add    %ch,0xffe(%ebp,%eax,1)
 7b6:	ad                   	lods   %ds:(%esi),%eax
 7b7:	05 34 05 00 00       	add    $0x534,%eax
 7bc:	ae                   	scas   %es:(%edi),%al
 7bd:	05 aa 0f 00 00       	add    $0xfaa,%eax
 7c2:	af                   	scas   %es:(%edi),%eax
 7c3:	05 6d 0f 00 00       	add    $0xf6d,%eax
 7c8:	b0 05                	mov    $0x5,%al
 7ca:	b5 09                	mov    $0x9,%ch
 7cc:	00 00                	add    %al,(%eax)
 7ce:	b1 05                	mov    $0x5,%cl
 7d0:	43                   	inc    %ebx
 7d1:	06                   	push   %es
 7d2:	00 00                	add    %al,(%eax)
 7d4:	b2 05                	mov    $0x5,%dl
 7d6:	c8 12 00 00          	enter  $0x12,$0x0
 7da:	b3 05                	mov    $0x5,%bl
 7dc:	14 0c                	adc    $0xc,%al
 7de:	00 00                	add    %al,(%eax)
 7e0:	b4 05                	mov    $0x5,%ah
 7e2:	d9 13                	fsts   (%ebx)
 7e4:	00 00                	add    %al,(%eax)
 7e6:	b5 05                	mov    $0x5,%ch
 7e8:	1d 06 00 00 b6       	sbb    $0xb6000006,%eax
 7ed:	05 c1 03 00 00       	add    $0x3c1,%eax
 7f2:	b7 05                	mov    $0x5,%bh
 7f4:	25 0d 00 00 b8       	and    $0xb800000d,%eax
 7f9:	05 dc 12 00 00       	add    $0x12dc,%eax
 7fe:	b9 05 74 06 00       	mov    $0x67405,%ecx
 803:	00 ba 05 60 10 00    	add    %bh,0x106005(%edx)
 809:	00 bb 05 9c 08 00    	add    %bh,0x89c05(%ebx)
 80f:	00 bc 05 38 09 00 00 	add    %bh,0x938(%ebp,%eax,1)
 816:	bd 05 fa 05 00       	mov    $0x5fa05,%ebp
 81b:	00 be 05 4d 12 00    	add    %bh,0x124d05(%esi)
 821:	00 bf 05 26 12 00    	add    %bh,0x122605(%edi)
 827:	00 c0                	add    %al,%al
 829:	05 d8 0d 00 00       	add    $0xdd8,%eax
 82e:	c1 05 98 02 00 00 c2 	roll   $0xc2,0x298
 835:	05 83 07 00 00       	add    $0x783,%eax
 83a:	c3                   	ret    
 83b:	05 50 09 00 00       	add    $0x950,%eax
 840:	c4 05 ec 09 00 00    	les    0x9ec,%eax
 846:	c5 05 53 03 00 00    	lds    0x353,%eax
 84c:	c6 05 39 11 00 00 c7 	movb   $0xc7,0x1139
 853:	05 0b 0c 00 00       	add    $0xc0b,%eax
 858:	eb 05                	jmp    85f <__FRAME_END__+0x21b>
 85a:	b3 08                	mov    $0x8,%bl
 85c:	00 00                	add    %al,(%eax)
 85e:	ec                   	in     (%dx),%al
 85f:	05 c9 05 00 00       	add    $0x5c9,%eax
 864:	ed                   	in     (%dx),%eax
 865:	05 c9 09 00 00       	add    $0x9c9,%eax
 86a:	ee                   	out    %al,(%dx)
 86b:	05 79 0d 00 00       	add    $0xd79,%eax
 870:	ef                   	out    %eax,(%dx)
 871:	05 5b 0e 00 00       	add    $0xe5b,%eax
 876:	f0 05 df 0e 00 00    	lock add $0xedf,%eax
 87c:	f1                   	icebp  
 87d:	05 7a 03 00 00       	add    $0x37a,%eax
 882:	f2 05 b0 04 00 00    	repnz add $0x4b0,%eax
 888:	f3 05 ec 0f 00 00    	repz add $0xfec,%eax
 88e:	f4                   	hlt    
 88f:	05 90 10 00 00       	add    $0x1090,%eax
 894:	f5                   	cmc    
 895:	05 89 12 00 00       	add    $0x1289,%eax
 89a:	f6 05 11 03 00 00 f7 	testb  $0xf7,0x311
 8a1:	05 81 05 00 00       	add    $0x581,%eax
 8a6:	f8                   	clc    
 8a7:	00 02                	add    %al,(%edx)
 8a9:	04 05                	add    $0x5,%al
 8ab:	f1                   	icebp  
 8ac:	13 00                	adc    (%eax),%eax
 8ae:	00 06                	add    %al,(%esi)
 8b0:	04 2f                	add    $0x2f,%al
 8b2:	00 00                	add    %al,(%eax)
 8b4:	00 03                	add    %al,(%ebx)
 8b6:	2b 00                	sub    (%eax),%eax
 8b8:	06                   	push   %es
 8b9:	00 00                	add    %al,(%eax)
 8bb:	05 e2 0a 00 00       	add    $0xae2,%eax
 8c0:	00 05 ba 02 00 00    	add    %al,0x2ba
 8c6:	01 05 34 10 00 00    	add    %eax,0x1034
 8cc:	02 05 00 08 00 00    	add    0x800,%al
 8d2:	03 05 b7 10 00 00    	add    0x10b7,%eax
 8d8:	00 05 28 13 00 00    	add    %al,0x1328
 8de:	01 05 74 08 00 00    	add    %eax,0x874
 8e4:	02 05 d5 11 00 00    	add    0x11d5,%al
 8ea:	00 05 10 12 00 00    	add    %al,0x1210
 8f0:	00 00                	add    %al,(%eax)
 8f2:	06                   	push   %es
 8f3:	04 2f                	add    $0x2f,%al
 8f5:	00 00                	add    %al,(%eax)
 8f7:	00 03                	add    %al,(%ebx)
 8f9:	41                   	inc    %ecx
 8fa:	25 06 00 00 05       	and    $0x5000006,%eax
 8ff:	ab                   	stos   %eax,%es:(%edi)
 900:	03 00                	add    (%eax),%eax
 902:	00 00                	add    %al,(%eax)
 904:	05 4d 07 00 00       	add    $0x74d,%eax
 909:	00 05 ca 0e 00 00    	add    %al,0xeca
 90f:	01 05 59 05 00 00    	add    %eax,0x559
 915:	01 00                	add    %eax,(%eax)
 917:	06                   	push   %es
 918:	04 2f                	add    $0x2f,%al
 91a:	00 00                	add    %al,(%eax)
 91c:	00 03                	add    %al,(%ebx)
 91e:	73 4a                	jae    96a <__FRAME_END__+0x326>
 920:	06                   	push   %es
 921:	00 00                	add    %al,(%eax)
 923:	05 48 08 00 00       	add    $0x848,%eax
 928:	00 05 ac 06 00 00    	add    %al,0x6ac
 92e:	01 05 fb 0e 00 00    	add    %eax,0xefb
 934:	02 05 f2 0d 00 00    	add    0xdf2,%al
 93a:	00 00                	add    %al,(%eax)
 93c:	02 0c 04             	add    (%esp,%eax,1),%cl
 93f:	33 0d 00 00 02 08    	xor    0x8020000,%ecx
 945:	04 38                	add    $0x38,%al
 947:	0d 00 00 07 15       	or     $0x15070000,%eax
 94c:	06                   	push   %es
 94d:	00 00                	add    %al,(%eax)
 94f:	01 08                	add    %ecx,(%eax)
 951:	4b                   	dec    %ebx
 952:	00 00                	add    %al,(%eax)
 954:	00 50 05             	add    %dl,0x5(%eax)
 957:	00 00                	add    %al,(%eax)
 959:	1d 00 00 00 01       	sbb    $0x1000000,%eax
 95e:	9c                   	pushf  
 95f:	08 3e                	or     %bh,(%esi)
 961:	03 00                	add    (%eax),%eax
 963:	00 01                	add    %al,(%ecx)
 965:	18 93 03 00 00 6d    	sbb    %dl,0x6d000003(%ebx)
 96b:	05 00 00 06 00       	add    $0x60000,%eax
 970:	00 00                	add    %al,(%eax)
 972:	01 9c 09 21 00 00 00 	add    %ebx,0x21(%ecx,%ecx,1)
 979:	93                   	xchg   %eax,%ebx
 97a:	06                   	push   %es
 97b:	00 00                	add    %al,(%eax)
 97d:	0a 67 00             	or     0x0(%edi),%ah
 980:	00 00                	add    %al,(%eax)
 982:	ff                   	(bad)  
 983:	ff 00                	incl   (%eax)
 985:	0b 30                	or     (%eax),%esi
 987:	03 00                	add    (%eax),%eax
 989:	00 01                	add    %al,(%ecx)
 98b:	07                   	pop    %es
 98c:	82                   	(bad)  
 98d:	06                   	push   %es
 98e:	00 00                	add    %al,(%eax)
 990:	05 03 40 20 00       	add    $0x204003,%eax
	...

Disassembly of section .debug_abbrev:

00000000 <.debug_abbrev>:
   0:	01 11                	add    %edx,(%ecx)
   2:	01 25 0e 13 0b 03    	add    %esp,0x30b130e
   8:	0e                   	push   %cs
   9:	11 01                	adc    %eax,(%ecx)
   b:	12 06                	adc    (%esi),%al
   d:	10 17                	adc    %dl,(%edi)
   f:	00 00                	add    %al,(%eax)
  11:	02 16                	add    (%esi),%dl
  13:	00 03                	add    %al,(%ebx)
  15:	0e                   	push   %cs
  16:	3a 0b                	cmp    (%ebx),%cl
  18:	3b 0b                	cmp    (%ebx),%ecx
  1a:	49                   	dec    %ecx
  1b:	13 00                	adc    (%eax),%eax
  1d:	00 03                	add    %al,(%ebx)
  1f:	24 00                	and    $0x0,%al
  21:	0b 0b                	or     (%ebx),%ecx
  23:	3e 0b 03             	or     %ds:(%ebx),%eax
  26:	0e                   	push   %cs
  27:	00 00                	add    %al,(%eax)
  29:	04 24                	add    $0x24,%al
  2b:	00 0b                	add    %cl,(%ebx)
  2d:	0b 3e                	or     (%esi),%edi
  2f:	0b 03                	or     (%ebx),%eax
  31:	08 00                	or     %al,(%eax)
  33:	00 05 0f 00 0b 0b    	add    %al,0xb0b000f
  39:	00 00                	add    %al,(%eax)
  3b:	06                   	push   %es
  3c:	0f 00 0b             	str    (%ebx)
  3f:	0b 49 13             	or     0x13(%ecx),%ecx
  42:	00 00                	add    %al,(%eax)
  44:	07                   	pop    %es
  45:	13 01                	adc    (%ecx),%eax
  47:	03 0e                	add    (%esi),%ecx
  49:	0b 0b                	or     (%ebx),%ecx
  4b:	3a 0b                	cmp    (%ebx),%cl
  4d:	3b 0b                	cmp    (%ebx),%ecx
  4f:	01 13                	add    %edx,(%ebx)
  51:	00 00                	add    %al,(%eax)
  53:	08 0d 00 03 0e 3a    	or     %cl,0x3a0e0300
  59:	0b 3b                	or     (%ebx),%edi
  5b:	0b 49 13             	or     0x13(%ecx),%ecx
  5e:	38 0b                	cmp    %cl,(%ebx)
  60:	00 00                	add    %al,(%eax)
  62:	09 0d 00 03 0e 3a    	or     %ecx,0x3a0e0300
  68:	0b 3b                	or     (%ebx),%edi
  6a:	05 49 13 38 0b       	add    $0xb381349,%eax
  6f:	00 00                	add    %al,(%eax)
  71:	0a 16                	or     (%esi),%dl
  73:	00 03                	add    %al,(%ebx)
  75:	0e                   	push   %cs
  76:	3a 0b                	cmp    (%ebx),%cl
  78:	3b 0b                	cmp    (%ebx),%ecx
  7a:	00 00                	add    %al,(%eax)
  7c:	0b 01                	or     (%ecx),%eax
  7e:	01 49 13             	add    %ecx,0x13(%ecx)
  81:	01 13                	add    %edx,(%ebx)
  83:	00 00                	add    %al,(%eax)
  85:	0c 21                	or     $0x21,%al
  87:	00 49 13             	add    %cl,0x13(%ecx)
  8a:	2f                   	das    
  8b:	0b 00                	or     (%eax),%eax
  8d:	00 0d 2e 01 3f 19    	add    %cl,0x193f012e
  93:	03 0e                	add    (%esi),%ecx
  95:	3a 0b                	cmp    (%ebx),%cl
  97:	3b 0b                	cmp    (%ebx),%ecx
  99:	27                   	daa    
  9a:	19 11                	sbb    %edx,(%ecx)
  9c:	01 12                	add    %edx,(%edx)
  9e:	06                   	push   %es
  9f:	40                   	inc    %eax
  a0:	18 97 42 19 01 13    	sbb    %dl,0x13011942(%edi)
  a6:	00 00                	add    %al,(%eax)
  a8:	0e                   	push   %cs
  a9:	05 00 03 08 3a       	add    $0x3a080300,%eax
  ae:	0b 3b                	or     (%ebx),%edi
  b0:	0b 49 13             	or     0x13(%ecx),%ecx
  b3:	02 18                	add    (%eax),%bl
  b5:	00 00                	add    %al,(%eax)
  b7:	0f 34                	sysenter 
  b9:	00 03                	add    %al,(%ebx)
  bb:	08 3a                	or     %bh,(%edx)
  bd:	0b 3b                	or     (%ebx),%edi
  bf:	0b 49 13             	or     0x13(%ecx),%ecx
  c2:	02 17                	add    (%edi),%dl
  c4:	00 00                	add    %al,(%eax)
  c6:	10 26                	adc    %ah,(%esi)
  c8:	00 49 13             	add    %cl,0x13(%ecx)
  cb:	00 00                	add    %al,(%eax)
  cd:	11 34 00             	adc    %esi,(%eax,%eax,1)
  d0:	03 0e                	add    (%esi),%ecx
  d2:	3a 0b                	cmp    (%ebx),%cl
  d4:	3b 0b                	cmp    (%ebx),%ecx
  d6:	49                   	dec    %ecx
  d7:	13 3f                	adc    (%edi),%edi
  d9:	19 3c 19             	sbb    %edi,(%ecx,%ebx,1)
  dc:	00 00                	add    %al,(%eax)
  de:	12 34 00             	adc    (%eax,%eax,1),%dh
  e1:	03 08                	add    (%eax),%ecx
  e3:	3a 0b                	cmp    (%ebx),%cl
  e5:	3b 0b                	cmp    (%ebx),%ecx
  e7:	49                   	dec    %ecx
  e8:	13 3f                	adc    (%edi),%edi
  ea:	19 02                	sbb    %eax,(%edx)
  ec:	18 00                	sbb    %al,(%eax)
  ee:	00 00                	add    %al,(%eax)
  f0:	01 11                	add    %edx,(%ecx)
  f2:	01 25 0e 13 0b 03    	add    %esp,0x30b130e
  f8:	0e                   	push   %cs
  f9:	11 01                	adc    %eax,(%ecx)
  fb:	12 06                	adc    (%esi),%al
  fd:	10 17                	adc    %dl,(%edi)
  ff:	00 00                	add    %al,(%eax)
 101:	02 24 00             	add    (%eax,%eax,1),%ah
 104:	0b 0b                	or     (%ebx),%ecx
 106:	3e 0b 03             	or     %ds:(%ebx),%eax
 109:	0e                   	push   %cs
 10a:	00 00                	add    %al,(%eax)
 10c:	03 24 00             	add    (%eax,%eax,1),%esp
 10f:	0b 0b                	or     (%ebx),%ecx
 111:	3e 0b 03             	or     %ds:(%ebx),%eax
 114:	08 00                	or     %al,(%eax)
 116:	00 04 04             	add    %al,(%esp,%eax,1)
 119:	01 03                	add    %eax,(%ebx)
 11b:	0e                   	push   %cs
 11c:	0b 0b                	or     (%ebx),%ecx
 11e:	49                   	dec    %ecx
 11f:	13 3a                	adc    (%edx),%edi
 121:	0b 3b                	or     (%ebx),%edi
 123:	05 01 13 00 00       	add    $0x1301,%eax
 128:	05 28 00 03 0e       	add    $0xe030028,%eax
 12d:	1c 0b                	sbb    $0xb,%al
 12f:	00 00                	add    %al,(%eax)
 131:	06                   	push   %es
 132:	04 01                	add    $0x1,%al
 134:	0b 0b                	or     (%ebx),%ecx
 136:	49                   	dec    %ecx
 137:	13 3a                	adc    (%edx),%edi
 139:	0b 3b                	or     (%ebx),%edi
 13b:	0b 01                	or     (%ecx),%eax
 13d:	13 00                	adc    (%eax),%eax
 13f:	00 07                	add    %al,(%edi)
 141:	2e 00 3f             	add    %bh,%cs:(%edi)
 144:	19 03                	sbb    %eax,(%ebx)
 146:	0e                   	push   %cs
 147:	3a 0b                	cmp    (%ebx),%cl
 149:	3b 0b                	cmp    (%ebx),%ecx
 14b:	49                   	dec    %ecx
 14c:	13 11                	adc    (%ecx),%edx
 14e:	01 12                	add    %edx,(%edx)
 150:	06                   	push   %es
 151:	40                   	inc    %eax
 152:	18 96 42 19 00 00    	sbb    %dl,0x1942(%esi)
 158:	08 2e                	or     %ch,(%esi)
 15a:	00 3f                	add    %bh,(%edi)
 15c:	19 03                	sbb    %eax,(%ebx)
 15e:	0e                   	push   %cs
 15f:	3a 0b                	cmp    (%ebx),%cl
 161:	3b 0b                	cmp    (%ebx),%ecx
 163:	6e                   	outsb  %ds:(%esi),(%dx)
 164:	0e                   	push   %cs
 165:	11 01                	adc    %eax,(%ecx)
 167:	12 06                	adc    (%esi),%al
 169:	40                   	inc    %eax
 16a:	18 97 42 19 00 00    	sbb    %dl,0x1942(%edi)
 170:	09 01                	or     %eax,(%ecx)
 172:	01 49 13             	add    %ecx,0x13(%ecx)
 175:	01 13                	add    %edx,(%ebx)
 177:	00 00                	add    %al,(%eax)
 179:	0a 21                	or     (%ecx),%ah
 17b:	00 49 13             	add    %cl,0x13(%ecx)
 17e:	2f                   	das    
 17f:	05 00 00 0b 34       	add    $0x340b0000,%eax
 184:	00 03                	add    %al,(%ebx)
 186:	0e                   	push   %cs
 187:	3a 0b                	cmp    (%ebx),%cl
 189:	3b 0b                	cmp    (%ebx),%ecx
 18b:	49                   	dec    %ecx
 18c:	13 3f                	adc    (%edi),%edi
 18e:	19 02                	sbb    %eax,(%edx)
 190:	18 00                	sbb    %al,(%eax)
	...

Disassembly of section .debug_line:

00000000 <.debug_line>:
   0:	f8                   	clc    
   1:	00 00                	add    %al,(%eax)
   3:	00 02                	add    %al,(%edx)
   5:	00 e0                	add    %ah,%al
   7:	00 00                	add    %al,(%eax)
   9:	00 01                	add    %al,(%ecx)
   b:	01 fb                	add    %edi,%ebx
   d:	0e                   	push   %cs
   e:	0d 00 01 01 01       	or     $0x1010100,%eax
  13:	01 00                	add    %eax,(%eax)
  15:	00 00                	add    %al,(%eax)
  17:	01 00                	add    %eax,(%eax)
  19:	00 01                	add    %al,(%ecx)
  1b:	2f                   	das    
  1c:	68 6f 6d 65 2f       	push   $0x2f656d6f
  21:	73 6f                	jae    92 <_init-0x32a>
  23:	72 69                	jb     8e <_init-0x32e>
  25:	6e                   	outsb  %ds:(%esi),(%dx)
  26:	61                   	popa   
  27:	2f                   	das    
  28:	74 65                	je     8f <_init-0x32d>
  2a:	73 74                	jae    a0 <_init-0x31c>
  2c:	74 6f                	je     9d <_init-0x31f>
  2e:	6f                   	outsl  %ds:(%esi),(%dx)
  2f:	6c                   	insb   (%dx),%es:(%edi)
  30:	73 2f                	jae    61 <_init-0x35b>
  32:	72 69                	jb     9d <_init-0x31f>
  34:	76 65                	jbe    9b <_init-0x321>
  36:	72 2f                	jb     67 <_init-0x355>
  38:	62 65 6e             	bound  %esp,0x6e(%ebp)
  3b:	63 68 6d             	arpl   %bp,0x6d(%eax)
  3e:	61                   	popa   
  3f:	72 6b                	jb     ac <_init-0x310>
  41:	69 6e 67 2d 70 61 79 	imul   $0x7961702d,0x67(%esi),%ebp
  48:	6c                   	insb   (%dx),%es:(%edi)
  49:	6f                   	outsl  %ds:(%esi),(%dx)
  4a:	61                   	popa   
  4b:	64 2f                	fs das 
  4d:	73 69                	jae    b8 <_init-0x304>
  4f:	6d                   	insl   (%dx),%es:(%edi)
  50:	70 6c                	jo     be <_init-0x2fe>
  52:	75 5f                	jne    b3 <_init-0x309>
  54:	65 78 65             	gs js  bc <_init-0x300>
  57:	6d                   	insl   (%dx),%es:(%edi)
  58:	70 6c                	jo     c6 <_init-0x2f6>
  5a:	75 00                	jne    5c <_init-0x360>
  5c:	2f                   	das    
  5d:	75 73                	jne    d2 <_init-0x2ea>
  5f:	72 2f                	jb     90 <_init-0x32c>
  61:	6c                   	insb   (%dx),%es:(%edi)
  62:	69 62 2f 67 63 63 2f 	imul   $0x2f636367,0x2f(%edx),%esp
  69:	78 38                	js     a3 <_init-0x319>
  6b:	36 5f                	ss pop %edi
  6d:	36 34 2d             	ss xor $0x2d,%al
  70:	6c                   	insb   (%dx),%es:(%edi)
  71:	69 6e 75 78 2d 67 6e 	imul   $0x6e672d78,0x75(%esi),%ebp
  78:	75 2f                	jne    a9 <_init-0x313>
  7a:	35 2f 69 6e 63       	xor    $0x636e692f,%eax
  7f:	6c                   	insb   (%dx),%es:(%edi)
  80:	75 64                	jne    e6 <_init-0x2d6>
  82:	65 00 2f             	add    %ch,%gs:(%edi)
  85:	75 73                	jne    fa <_init-0x2c2>
  87:	72 2f                	jb     b8 <_init-0x304>
  89:	69 6e 63 6c 75 64 65 	imul   $0x6564756c,0x63(%esi),%ebp
  90:	2f                   	das    
  91:	62 69 74             	bound  %ebp,0x74(%ecx)
  94:	73 00                	jae    96 <_init-0x326>
  96:	2f                   	das    
  97:	75 73                	jne    10c <_init-0x2b0>
  99:	72 2f                	jb     ca <_init-0x2f2>
  9b:	69 6e 63 6c 75 64 65 	imul   $0x6564756c,0x63(%esi),%ebp
  a2:	00 00                	add    %al,(%eax)
  a4:	73 69                	jae    10f <_init-0x2ad>
  a6:	6d                   	insl   (%dx),%es:(%edi)
  a7:	70 6c                	jo     115 <_init-0x2a7>
  a9:	65 2d 61 63 63 75    	gs sub $0x75636361,%eax
  af:	6d                   	insl   (%dx),%es:(%edi)
  b0:	75 6c                	jne    11e <_init-0x29e>
  b2:	61                   	popa   
  b3:	74 6f                	je     124 <_init-0x298>
  b5:	72 2e                	jb     e5 <_init-0x2d7>
  b7:	63 00                	arpl   %ax,(%eax)
  b9:	01 00                	add    %eax,(%eax)
  bb:	00 73 74             	add    %dh,0x74(%ebx)
  be:	64 64 65 66 2e 68 00 	fs fs gs cs pushw $0x200
  c5:	02 
  c6:	00 00                	add    %al,(%eax)
  c8:	74 79                	je     143 <_init-0x279>
  ca:	70 65                	jo     131 <_init-0x28b>
  cc:	73 2e                	jae    fc <_init-0x2c0>
  ce:	68 00 03 00 00       	push   $0x300
  d3:	6c                   	insb   (%dx),%es:(%edi)
  d4:	69 62 69 6f 2e 68 00 	imul   $0x682e6f,0x69(%edx),%esp
  db:	04 00                	add    $0x0,%al
  dd:	00 73 74             	add    %dh,0x74(%ebx)
  e0:	64 69 6f 2e 68 00 04 	imul   $0x40068,%fs:0x2e(%edi),%ebp
  e7:	00 
  e8:	00 00                	add    %al,(%eax)
  ea:	00 05 02 30 05 00    	add    %al,0x53002
  f0:	00 16                	add    %dl,(%esi)
  f2:	01 4b 59             	add    %ecx,0x59(%ebx)
  f5:	5a                   	pop    %edx
  f6:	bd 02 06 00 01       	mov    $0x1000602,%ebp
  fb:	01 c8                	add    %ecx,%eax
  fd:	00 00                	add    %al,(%eax)
  ff:	00 02                	add    %al,(%edx)
 101:	00 ae 00 00 00 01    	add    %ch,0x1000000(%esi)
 107:	01 fb                	add    %edi,%ebx
 109:	0e                   	push   %cs
 10a:	0d 00 01 01 01       	or     $0x1010100,%eax
 10f:	01 00                	add    %eax,(%eax)
 111:	00 00                	add    %al,(%eax)
 113:	01 00                	add    %eax,(%eax)
 115:	00 01                	add    %al,(%ecx)
 117:	2f                   	das    
 118:	68 6f 6d 65 2f       	push   $0x2f656d6f
 11d:	73 6f                	jae    18e <_init-0x22e>
 11f:	72 69                	jb     18a <_init-0x232>
 121:	6e                   	outsb  %ds:(%esi),(%dx)
 122:	61                   	popa   
 123:	2f                   	das    
 124:	74 65                	je     18b <_init-0x231>
 126:	73 74                	jae    19c <_init-0x220>
 128:	74 6f                	je     199 <_init-0x223>
 12a:	6f                   	outsl  %ds:(%esi),(%dx)
 12b:	6c                   	insb   (%dx),%es:(%edi)
 12c:	73 2f                	jae    15d <_init-0x25f>
 12e:	72 69                	jb     199 <_init-0x223>
 130:	76 65                	jbe    197 <_init-0x225>
 132:	72 2f                	jb     163 <_init-0x259>
 134:	62 65 6e             	bound  %esp,0x6e(%ebp)
 137:	63 68 6d             	arpl   %bp,0x6d(%eax)
 13a:	61                   	popa   
 13b:	72 6b                	jb     1a8 <_init-0x214>
 13d:	69 6e 67 2d 70 61 79 	imul   $0x7961702d,0x67(%esi),%ebp
 144:	6c                   	insb   (%dx),%es:(%edi)
 145:	6f                   	outsl  %ds:(%esi),(%dx)
 146:	61                   	popa   
 147:	64 2f                	fs das 
 149:	73 69                	jae    1b4 <_init-0x208>
 14b:	6d                   	insl   (%dx),%es:(%edi)
 14c:	70 6c                	jo     1ba <_init-0x202>
 14e:	75 5f                	jne    1af <_init-0x20d>
 150:	65 78 65             	gs js  1b8 <_init-0x204>
 153:	6d                   	insl   (%dx),%es:(%edi)
 154:	70 6c                	jo     1c2 <_init-0x1fa>
 156:	75 00                	jne    158 <_init-0x264>
 158:	2f                   	das    
 159:	75 73                	jne    1ce <_init-0x1ee>
 15b:	72 2f                	jb     18c <_init-0x230>
 15d:	69 6e 63 6c 75 64 65 	imul   $0x6564756c,0x63(%esi),%ebp
 164:	2f                   	das    
 165:	62 69 74             	bound  %ebp,0x74(%ecx)
 168:	73 00                	jae    16a <_init-0x252>
 16a:	2f                   	das    
 16b:	75 73                	jne    1e0 <_init-0x1dc>
 16d:	72 2f                	jb     19e <_init-0x21e>
 16f:	69 6e 63 6c 75 64 65 	imul   $0x6564756c,0x63(%esi),%ebp
 176:	00 00                	add    %al,(%eax)
 178:	50                   	push   %eax
 179:	61                   	popa   
 17a:	79 6c                	jns    1e8 <_init-0x1d4>
 17c:	6f                   	outsl  %ds:(%esi),(%dx)
 17d:	61                   	popa   
 17e:	64 2e 63 70 70       	fs arpl %si,%cs:0x70(%eax)
 183:	00 01                	add    %al,(%ecx)
 185:	00 00                	add    %al,(%eax)
 187:	63 6f 6e             	arpl   %bp,0x6e(%edi)
 18a:	66 6e                	data16 outsb %ds:(%esi),(%dx)
 18c:	61                   	popa   
 18d:	6d                   	insl   (%dx),%es:(%edi)
 18e:	65 2e 68 00 02 00 00 	gs cs push $0x200
 195:	70 74                	jo     20b <_init-0x1b1>
 197:	68 72 65 61 64       	push   $0x64616572
 19c:	2e 68 00 03 00 00    	cs push $0x300
 1a2:	66 63 6e 74          	data16 arpl %bp,0x74(%esi)
 1a6:	6c                   	insb   (%dx),%es:(%edi)
 1a7:	2d 6c 69 6e 75       	sub    $0x756e696c,%eax
 1ac:	78 2e                	js     1dc <_init-0x1e0>
 1ae:	68 00 02 00 00       	push   $0x200
 1b3:	00 00                	add    %al,(%eax)
 1b5:	05 02 50 05 00       	add    $0x55002,%eax
 1ba:	00 19                	add    %bl,(%ecx)
 1bc:	67 f3 59             	addr16 repz pop %ecx
 1bf:	03 0d 2e 3d 02 03    	add    0x3023d2e,%ecx
 1c5:	00 01                	add    %al,(%ecx)
 1c7:	01                   	.byte 0x1

Disassembly of section .debug_str:

00000000 <.debug_str>:
       0:	5f                   	pop    %edi
       1:	49                   	dec    %ecx
       2:	4f                   	dec    %edi
       3:	5f                   	pop    %edi
       4:	62 75 66             	bound  %esi,0x66(%ebp)
       7:	5f                   	pop    %edi
       8:	65 6e                	outsb  %gs:(%esi),(%dx)
       a:	64 00 5f 5f          	add    %bl,%fs:0x5f(%edi)
       e:	71 75                	jno    85 <_init-0x337>
      10:	61                   	popa   
      11:	64 5f                	fs pop %edi
      13:	74 00                	je     15 <_init-0x3a7>
      15:	5f                   	pop    %edi
      16:	6f                   	outsl  %ds:(%esi),(%dx)
      17:	6c                   	insb   (%dx),%es:(%edi)
      18:	64 5f                	fs pop %edi
      1a:	6f                   	outsl  %ds:(%esi),(%dx)
      1b:	66 66 73 65          	data16 data16 jae 84 <_init-0x338>
      1f:	74 00                	je     21 <_init-0x39b>
      21:	2f                   	das    
      22:	68 6f 6d 65 2f       	push   $0x2f656d6f
      27:	73 6f                	jae    98 <_init-0x324>
      29:	72 69                	jb     94 <_init-0x328>
      2b:	6e                   	outsb  %ds:(%esi),(%dx)
      2c:	61                   	popa   
      2d:	2f                   	das    
      2e:	74 65                	je     95 <_init-0x327>
      30:	73 74                	jae    a6 <_init-0x316>
      32:	74 6f                	je     a3 <_init-0x319>
      34:	6f                   	outsl  %ds:(%esi),(%dx)
      35:	6c                   	insb   (%dx),%es:(%edi)
      36:	73 2f                	jae    67 <_init-0x355>
      38:	72 69                	jb     a3 <_init-0x319>
      3a:	76 65                	jbe    a1 <_init-0x31b>
      3c:	72 2f                	jb     6d <_init-0x34f>
      3e:	62 65 6e             	bound  %esp,0x6e(%ebp)
      41:	63 68 6d             	arpl   %bp,0x6d(%eax)
      44:	61                   	popa   
      45:	72 6b                	jb     b2 <_init-0x30a>
      47:	69 6e 67 2d 70 61 79 	imul   $0x7961702d,0x67(%esi),%ebp
      4e:	6c                   	insb   (%dx),%es:(%edi)
      4f:	6f                   	outsl  %ds:(%esi),(%dx)
      50:	61                   	popa   
      51:	64 2f                	fs das 
      53:	73 69                	jae    be <_init-0x2fe>
      55:	6d                   	insl   (%dx),%es:(%edi)
      56:	70 6c                	jo     c4 <_init-0x2f8>
      58:	75 5f                	jne    b9 <_init-0x303>
      5a:	65 78 65             	gs js  c2 <_init-0x2fa>
      5d:	6d                   	insl   (%dx),%es:(%edi)
      5e:	70 6c                	jo     cc <_init-0x2f0>
      60:	75 2f                	jne    91 <_init-0x32b>
      62:	73 69                	jae    cd <_init-0x2ef>
      64:	6d                   	insl   (%dx),%es:(%edi)
      65:	70 6c                	jo     d3 <_init-0x2e9>
      67:	65 2d 61 63 63 75    	gs sub $0x75636361,%eax
      6d:	6d                   	insl   (%dx),%es:(%edi)
      6e:	75 6c                	jne    dc <_init-0x2e0>
      70:	61                   	popa   
      71:	74 6f                	je     e2 <_init-0x2da>
      73:	72 2e                	jb     a3 <_init-0x319>
      75:	63 00                	arpl   %ax,(%eax)
      77:	5f                   	pop    %edi
      78:	49                   	dec    %ecx
      79:	4f                   	dec    %edi
      7a:	5f                   	pop    %edi
      7b:	73 61                	jae    de <_init-0x2de>
      7d:	76 65                	jbe    e4 <_init-0x2d8>
      7f:	5f                   	pop    %edi
      80:	65 6e                	outsb  %gs:(%esi),(%dx)
      82:	64 00 73 68          	add    %dh,%fs:0x68(%ebx)
      86:	6f                   	outsl  %ds:(%esi),(%dx)
      87:	72 74                	jb     fd <_init-0x2bf>
      89:	20 69 6e             	and    %ch,0x6e(%ecx)
      8c:	74 00                	je     8e <_init-0x32e>
      8e:	73 69                	jae    f9 <_init-0x2c3>
      90:	7a 65                	jp     f7 <_init-0x2c5>
      92:	5f                   	pop    %edi
      93:	74 00                	je     95 <_init-0x327>
      95:	73 69                	jae    100 <_init-0x2bc>
      97:	7a 65                	jp     fe <_init-0x2be>
      99:	74 79                	je     114 <_init-0x2a8>
      9b:	70 65                	jo     102 <_init-0x2ba>
      9d:	00 5f 49             	add    %bl,0x49(%edi)
      a0:	4f                   	dec    %edi
      a1:	5f                   	pop    %edi
      a2:	77 72                	ja     116 <_init-0x2a6>
      a4:	69 74 65 5f 70 74 72 	imul   $0x727470,0x5f(%ebp,%eiz,2),%esi
      ab:	00 
      ac:	5f                   	pop    %edi
      ad:	66 6c                	data16 insb (%dx),%es:(%edi)
      af:	61                   	popa   
      b0:	67 73 00             	addr16 jae b3 <_init-0x309>
      b3:	5f                   	pop    %edi
      b4:	49                   	dec    %ecx
      b5:	4f                   	dec    %edi
      b6:	5f                   	pop    %edi
      b7:	62 75 66             	bound  %esi,0x66(%ebp)
      ba:	5f                   	pop    %edi
      bb:	62 61 73             	bound  %esp,0x73(%ecx)
      be:	65 00 5f 6d          	add    %bl,%gs:0x6d(%edi)
      c2:	61                   	popa   
      c3:	72 6b                	jb     130 <_init-0x28c>
      c5:	65 72 73             	gs jb  13b <_init-0x281>
      c8:	00 5f 49             	add    %bl,0x49(%edi)
      cb:	4f                   	dec    %edi
      cc:	5f                   	pop    %edi
      cd:	72 65                	jb     134 <_init-0x288>
      cf:	61                   	popa   
      d0:	64 5f                	fs pop %edi
      d2:	65 6e                	outsb  %gs:(%esi),(%dx)
      d4:	64 00 6c 6f 6e       	add    %ch,%fs:0x6e(%edi,%ebp,2)
      d9:	67 20 6c 6f          	and    %ch,0x6f(%si)
      dd:	6e                   	outsb  %ds:(%esi),(%dx)
      de:	67 20 69 6e          	and    %ch,0x6e(%bx,%di)
      e2:	74 00                	je     e4 <_init-0x2d8>
      e4:	5f                   	pop    %edi
      e5:	6c                   	insb   (%dx),%es:(%edi)
      e6:	6f                   	outsl  %ds:(%esi),(%dx)
      e7:	63 6b 00             	arpl   %bp,0x0(%ebx)
      ea:	5f                   	pop    %edi
      eb:	63 75 72             	arpl   %si,0x72(%ebp)
      ee:	5f                   	pop    %edi
      ef:	63 6f 6c             	arpl   %bp,0x6c(%edi)
      f2:	75 6d                	jne    161 <_init-0x25b>
      f4:	6e                   	outsb  %ds:(%esi),(%dx)
      f5:	00 5f 70             	add    %bl,0x70(%edi)
      f8:	6f                   	outsl  %ds:(%esi),(%dx)
      f9:	73 00                	jae    fb <_init-0x2c1>
      fb:	47                   	inc    %edi
      fc:	4e                   	dec    %esi
      fd:	55                   	push   %ebp
      fe:	20 43 31             	and    %al,0x31(%ebx)
     101:	31 20                	xor    %esp,(%eax)
     103:	35 2e 34 2e 30       	xor    $0x302e342e,%eax
     108:	20 32                	and    %dh,(%edx)
     10a:	30 31                	xor    %dh,(%ecx)
     10c:	36 30 36             	xor    %dh,%ss:(%esi)
     10f:	30 39                	xor    %bh,(%ecx)
     111:	20 2d 6d 33 32 20    	and    %ch,0x2032336d
     117:	2d 6d 74 75 6e       	sub    $0x6e75746d,%eax
     11c:	65 3d 67 65 6e 65    	gs cmp $0x656e6567,%eax
     122:	72 69                	jb     18d <_init-0x22f>
     124:	63 20                	arpl   %sp,(%eax)
     126:	2d 6d 61 72 63       	sub    $0x6372616d,%eax
     12b:	68 3d 69 36 38       	push   $0x3836693d
     130:	36 20 2d 67 20 2d 4f 	and    %ch,%ss:0x4f2d2067
     137:	33 20                	xor    (%eax),%esp
     139:	2d 66 73 74 61       	sub    $0x61747366,%eax
     13e:	63 6b 2d             	arpl   %bp,0x2d(%ebx)
     141:	70 72                	jo     1b5 <_init-0x207>
     143:	6f                   	outsl  %ds:(%esi),(%dx)
     144:	74 65                	je     1ab <_init-0x211>
     146:	63 74 6f 72          	arpl   %si,0x72(%edi,%ebp,2)
     14a:	2d 73 74 72 6f       	sub    $0x6f727473,%eax
     14f:	6e                   	outsb  %ds:(%esi),(%dx)
     150:	67 00 5f 73          	add    %bl,0x73(%bx)
     154:	62 75 66             	bound  %esi,0x66(%ebp)
     157:	00 5f 49             	add    %bl,0x49(%edi)
     15a:	4f                   	dec    %edi
     15b:	5f                   	pop    %edi
     15c:	46                   	inc    %esi
     15d:	49                   	dec    %ecx
     15e:	4c                   	dec    %esp
     15f:	45                   	inc    %ebp
     160:	00 75 6e             	add    %dh,0x6e(%ebp)
     163:	73 69                	jae    1ce <_init-0x1ee>
     165:	67 6e                	outsb  %ds:(%si),(%dx)
     167:	65 64 20 63 68       	gs and %ah,%fs:0x68(%ebx)
     16c:	61                   	popa   
     16d:	72 00                	jb     16f <_init-0x24d>
     16f:	6c                   	insb   (%dx),%es:(%edi)
     170:	6f                   	outsl  %ds:(%esi),(%dx)
     171:	6e                   	outsb  %ds:(%esi),(%dx)
     172:	67 20 6c 6f          	and    %ch,0x6f(%si)
     176:	6e                   	outsb  %ds:(%esi),(%dx)
     177:	67 20 75 6e          	and    %dh,0x6e(%di)
     17b:	73 69                	jae    1e6 <_init-0x1d6>
     17d:	67 6e                	outsb  %ds:(%si),(%dx)
     17f:	65 64 20 69 6e       	gs and %ch,%fs:0x6e(%ecx)
     184:	74 00                	je     186 <_init-0x236>
     186:	5f                   	pop    %edi
     187:	49                   	dec    %ecx
     188:	4f                   	dec    %edi
     189:	5f                   	pop    %edi
     18a:	6d                   	insl   (%dx),%es:(%edi)
     18b:	61                   	popa   
     18c:	72 6b                	jb     1f9 <_init-0x1c3>
     18e:	65 72 00             	gs jb  191 <_init-0x22b>
     191:	5f                   	pop    %edi
     192:	73 68                	jae    1fc <_init-0x1c0>
     194:	6f                   	outsl  %ds:(%esi),(%dx)
     195:	72 74                	jb     20b <_init-0x1b1>
     197:	62 75 66             	bound  %esi,0x66(%ebp)
     19a:	00 5f 49             	add    %bl,0x49(%edi)
     19d:	4f                   	dec    %edi
     19e:	5f                   	pop    %edi
     19f:	77 72                	ja     213 <_init-0x1a9>
     1a1:	69 74 65 5f 62 61 73 	imul   $0x65736162,0x5f(%ebp,%eiz,2),%esi
     1a8:	65 
     1a9:	00 5f 75             	add    %bl,0x75(%edi)
     1ac:	6e                   	outsb  %ds:(%esi),(%dx)
     1ad:	75 73                	jne    222 <_init-0x19a>
     1af:	65 64 32 00          	gs xor %fs:(%eax),%al
     1b3:	5f                   	pop    %edi
     1b4:	49                   	dec    %ecx
     1b5:	4f                   	dec    %edi
     1b6:	5f                   	pop    %edi
     1b7:	72 65                	jb     21e <_init-0x19e>
     1b9:	61                   	popa   
     1ba:	64 5f                	fs pop %edi
     1bc:	70 74                	jo     232 <_init-0x18a>
     1be:	72 00                	jb     1c0 <_init-0x1fc>
     1c0:	74 65                	je     227 <_init-0x195>
     1c2:	73 74                	jae    238 <_init-0x184>
     1c4:	5f                   	pop    %edi
     1c5:	73 69                	jae    230 <_init-0x18c>
     1c7:	6d                   	insl   (%dx),%es:(%edi)
     1c8:	70 6c                	jo     236 <_init-0x186>
     1ca:	65 00 73 68          	add    %dh,%gs:0x68(%ebx)
     1ce:	6f                   	outsl  %ds:(%esi),(%dx)
     1cf:	72 74                	jb     245 <_init-0x177>
     1d1:	20 75 6e             	and    %dh,0x6e(%ebp)
     1d4:	73 69                	jae    23f <_init-0x17d>
     1d6:	67 6e                	outsb  %ds:(%si),(%dx)
     1d8:	65 64 20 69 6e       	gs and %ch,%fs:0x6e(%ecx)
     1dd:	74 00                	je     1df <_init-0x1dd>
     1df:	5f                   	pop    %edi
     1e0:	6e                   	outsb  %ds:(%esi),(%dx)
     1e1:	65 78 74             	gs js  258 <_init-0x164>
     1e4:	00 5f 5f             	add    %bl,0x5f(%edi)
     1e7:	70 61                	jo     24a <_init-0x172>
     1e9:	64 31 00             	xor    %eax,%fs:(%eax)
     1ec:	5f                   	pop    %edi
     1ed:	5f                   	pop    %edi
     1ee:	70 61                	jo     251 <_init-0x16b>
     1f0:	64 32 00             	xor    %fs:(%eax),%al
     1f3:	5f                   	pop    %edi
     1f4:	5f                   	pop    %edi
     1f5:	70 61                	jo     258 <_init-0x164>
     1f7:	64 33 00             	xor    %fs:(%eax),%eax
     1fa:	5f                   	pop    %edi
     1fb:	5f                   	pop    %edi
     1fc:	70 61                	jo     25f <_init-0x15d>
     1fe:	64 34 00             	fs xor $0x0,%al
     201:	5f                   	pop    %edi
     202:	5f                   	pop    %edi
     203:	70 61                	jo     266 <_init-0x156>
     205:	64 35 00 5f 49 4f    	fs xor $0x4f495f00,%eax
     20b:	5f                   	pop    %edi
     20c:	77 72                	ja     280 <_init-0x13c>
     20e:	69 74 65 5f 65 6e 64 	imul   $0x646e65,0x5f(%ebp,%eiz,2),%esi
     215:	00 
     216:	5f                   	pop    %edi
     217:	5f                   	pop    %edi
     218:	6f                   	outsl  %ds:(%esi),(%dx)
     219:	66 66 36 34 5f       	data16 data16 ss xor $0x5f,%al
     21e:	74 00                	je     220 <_init-0x19c>
     220:	5f                   	pop    %edi
     221:	5f                   	pop    %edi
     222:	6f                   	outsl  %ds:(%esi),(%dx)
     223:	66 66 5f             	data16 pop %di
     226:	74 00                	je     228 <_init-0x194>
     228:	5f                   	pop    %edi
     229:	63 68 61             	arpl   %bp,0x61(%eax)
     22c:	69 6e 00 5f 49 4f 5f 	imul   $0x5f4f495f,0x0(%esi),%ebp
     233:	62 61 63             	bound  %esp,0x63(%ecx)
     236:	6b 75 70 5f          	imul   $0x5f,0x70(%ebp),%esi
     23a:	62 61 73             	bound  %esp,0x73(%ecx)
     23d:	65 00 73 74          	add    %dh,%gs:0x74(%ebx)
     241:	64 69 6e 00 5f 66 6c 	imul   $0x616c665f,%fs:0x0(%esi),%ebp
     248:	61 
     249:	67 73 32             	addr16 jae 27e <_init-0x13e>
     24c:	00 5f 6d             	add    %bl,0x6d(%edi)
     24f:	6f                   	outsl  %ds:(%esi),(%dx)
     250:	64 65 00 5f 49       	fs add %bl,%gs:0x49(%edi)
     255:	4f                   	dec    %edi
     256:	5f                   	pop    %edi
     257:	72 65                	jb     2be <_init-0xfe>
     259:	61                   	popa   
     25a:	64 5f                	fs pop %edi
     25c:	62 61 73             	bound  %esp,0x73(%ecx)
     25f:	65 00 5f 76          	add    %bl,%gs:0x76(%edi)
     263:	74 61                	je     2c6 <_init-0xf6>
     265:	62 6c 65 5f          	bound  %ebp,0x5f(%ebp,%eiz,2)
     269:	6f                   	outsl  %ds:(%esi),(%dx)
     26a:	66 66 73 65          	data16 data16 jae 2d3 <_init-0xe9>
     26e:	74 00                	je     270 <_init-0x14c>
     270:	5f                   	pop    %edi
     271:	49                   	dec    %ecx
     272:	4f                   	dec    %edi
     273:	5f                   	pop    %edi
     274:	73 61                	jae    2d7 <_init-0xe5>
     276:	76 65                	jbe    2dd <_init-0xdf>
     278:	5f                   	pop    %edi
     279:	62 61 73             	bound  %esp,0x73(%ecx)
     27c:	65 00 5f 66          	add    %bl,%gs:0x66(%edi)
     280:	69 6c 65 6e 6f 00 73 	imul   $0x7473006f,0x6e(%ebp,%eiz,2),%ebp
     287:	74 
     288:	64 6f                	outsl  %fs:(%esi),(%dx)
     28a:	75 74                	jne    300 <_init-0xbc>
     28c:	00 5f 49             	add    %bl,0x49(%edi)
     28f:	4f                   	dec    %edi
     290:	5f                   	pop    %edi
     291:	6c                   	insb   (%dx),%es:(%edi)
     292:	6f                   	outsl  %ds:(%esi),(%dx)
     293:	63 6b 5f             	arpl   %bp,0x5f(%ebx)
     296:	74 00                	je     298 <_init-0x124>
     298:	5f                   	pop    %edi
     299:	53                   	push   %ebx
     29a:	43                   	inc    %ebx
     29b:	5f                   	pop    %edi
     29c:	4c                   	dec    %esp
     29d:	45                   	inc    %ebp
     29e:	56                   	push   %esi
     29f:	45                   	inc    %ebp
     2a0:	4c                   	dec    %esp
     2a1:	33 5f 43             	xor    0x43(%edi),%ebx
     2a4:	41                   	inc    %ecx
     2a5:	43                   	inc    %ebx
     2a6:	48                   	dec    %eax
     2a7:	45                   	inc    %ebp
     2a8:	5f                   	pop    %edi
     2a9:	53                   	push   %ebx
     2aa:	49                   	dec    %ecx
     2ab:	5a                   	pop    %edx
     2ac:	45                   	inc    %ebp
     2ad:	00 5f 53             	add    %bl,0x53(%edi)
     2b0:	43                   	inc    %ebx
     2b1:	5f                   	pop    %edi
     2b2:	49                   	dec    %ecx
     2b3:	4e                   	dec    %esi
     2b4:	54                   	push   %esp
     2b5:	5f                   	pop    %edi
     2b6:	4d                   	dec    %ebp
     2b7:	41                   	inc    %ecx
     2b8:	58                   	pop    %eax
     2b9:	00 50 54             	add    %dl,0x54(%eax)
     2bc:	48                   	dec    %eax
     2bd:	52                   	push   %edx
     2be:	45                   	inc    %ebp
     2bf:	41                   	inc    %ecx
     2c0:	44                   	inc    %esp
     2c1:	5f                   	pop    %edi
     2c2:	4d                   	dec    %ebp
     2c3:	55                   	push   %ebp
     2c4:	54                   	push   %esp
     2c5:	45                   	inc    %ebp
     2c6:	58                   	pop    %eax
     2c7:	5f                   	pop    %edi
     2c8:	52                   	push   %edx
     2c9:	45                   	inc    %ebp
     2ca:	43                   	inc    %ebx
     2cb:	55                   	push   %ebp
     2cc:	52                   	push   %edx
     2cd:	53                   	push   %ebx
     2ce:	49                   	dec    %ecx
     2cf:	56                   	push   %esi
     2d0:	45                   	inc    %ebp
     2d1:	5f                   	pop    %edi
     2d2:	4e                   	dec    %esi
     2d3:	50                   	push   %eax
     2d4:	00 5f 53             	add    %bl,0x53(%edi)
     2d7:	43                   	inc    %ebx
     2d8:	5f                   	pop    %edi
     2d9:	4d                   	dec    %ebp
     2da:	41                   	inc    %ecx
     2db:	50                   	push   %eax
     2dc:	50                   	push   %eax
     2dd:	45                   	inc    %ebp
     2de:	44                   	inc    %esp
     2df:	5f                   	pop    %edi
     2e0:	46                   	inc    %esi
     2e1:	49                   	dec    %ecx
     2e2:	4c                   	dec    %esp
     2e3:	45                   	inc    %ebp
     2e4:	53                   	push   %ebx
     2e5:	00 5f 53             	add    %bl,0x53(%edi)
     2e8:	43                   	inc    %ebx
     2e9:	5f                   	pop    %edi
     2ea:	43                   	inc    %ebx
     2eb:	48                   	dec    %eax
     2ec:	49                   	dec    %ecx
     2ed:	4c                   	dec    %esp
     2ee:	44                   	inc    %esp
     2ef:	5f                   	pop    %edi
     2f0:	4d                   	dec    %ebp
     2f1:	41                   	inc    %ecx
     2f2:	58                   	pop    %eax
     2f3:	00 5f 53             	add    %bl,0x53(%edi)
     2f6:	43                   	inc    %ebx
     2f7:	5f                   	pop    %edi
     2f8:	43                   	inc    %ebx
     2f9:	4c                   	dec    %esp
     2fa:	4b                   	dec    %ebx
     2fb:	5f                   	pop    %edi
     2fc:	54                   	push   %esp
     2fd:	43                   	inc    %ebx
     2fe:	4b                   	dec    %ebx
     2ff:	00 5f 53             	add    %bl,0x53(%edi)
     302:	43                   	inc    %ebx
     303:	5f                   	pop    %edi
     304:	53                   	push   %ebx
     305:	49                   	dec    %ecx
     306:	47                   	inc    %edi
     307:	51                   	push   %ecx
     308:	55                   	push   %ebp
     309:	45                   	inc    %ebp
     30a:	55                   	push   %ebp
     30b:	45                   	inc    %ebp
     30c:	5f                   	pop    %edi
     30d:	4d                   	dec    %ebp
     30e:	41                   	inc    %ecx
     30f:	58                   	pop    %eax
     310:	00 5f 53             	add    %bl,0x53(%edi)
     313:	43                   	inc    %ebx
     314:	5f                   	pop    %edi
     315:	54                   	push   %esp
     316:	48                   	dec    %eax
     317:	52                   	push   %edx
     318:	45                   	inc    %ebp
     319:	41                   	inc    %ecx
     31a:	44                   	inc    %esp
     31b:	5f                   	pop    %edi
     31c:	52                   	push   %edx
     31d:	4f                   	dec    %edi
     31e:	42                   	inc    %edx
     31f:	55                   	push   %ebp
     320:	53                   	push   %ebx
     321:	54                   	push   %esp
     322:	5f                   	pop    %edi
     323:	50                   	push   %eax
     324:	52                   	push   %edx
     325:	49                   	dec    %ecx
     326:	4f                   	dec    %edi
     327:	5f                   	pop    %edi
     328:	49                   	dec    %ecx
     329:	4e                   	dec    %esi
     32a:	48                   	dec    %eax
     32b:	45                   	inc    %ebp
     32c:	52                   	push   %edx
     32d:	49                   	dec    %ecx
     32e:	54                   	push   %esp
     32f:	00 70 61             	add    %dh,0x61(%eax)
     332:	79 6c                	jns    3a0 <_init-0x1c>
     334:	6f                   	outsl  %ds:(%esi),(%dx)
     335:	61                   	popa   
     336:	64 42                	fs inc %edx
     338:	75 66                	jne    3a0 <_init-0x1c>
     33a:	66 65 72 00          	data16 gs jb 33e <_init-0x7e>
     33e:	73 6f                	jae    3af <_init-0xd>
     340:	6d                   	insl   (%dx),%es:(%edi)
     341:	61                   	popa   
     342:	69 6e 00 5f 53 43 5f 	imul   $0x5f43535f,0x0(%esi),%ebp
     349:	44                   	inc    %esp
     34a:	45                   	inc    %ebp
     34b:	56                   	push   %esi
     34c:	49                   	dec    %ecx
     34d:	43                   	inc    %ebx
     34e:	45                   	inc    %ebp
     34f:	5f                   	pop    %edi
     350:	49                   	dec    %ecx
     351:	4f                   	dec    %edi
     352:	00 5f 53             	add    %bl,0x53(%edi)
     355:	43                   	inc    %ebx
     356:	5f                   	pop    %edi
     357:	4c                   	dec    %esp
     358:	45                   	inc    %ebp
     359:	56                   	push   %esi
     35a:	45                   	inc    %ebp
     35b:	4c                   	dec    %esp
     35c:	34 5f                	xor    $0x5f,%al
     35e:	43                   	inc    %ebx
     35f:	41                   	inc    %ecx
     360:	43                   	inc    %ebx
     361:	48                   	dec    %eax
     362:	45                   	inc    %ebp
     363:	5f                   	pop    %edi
     364:	41                   	inc    %ecx
     365:	53                   	push   %ebx
     366:	53                   	push   %ebx
     367:	4f                   	dec    %edi
     368:	43                   	inc    %ebx
     369:	00 5f 53             	add    %bl,0x53(%edi)
     36c:	43                   	inc    %ebx
     36d:	5f                   	pop    %edi
     36e:	4a                   	dec    %edx
     36f:	4f                   	dec    %edi
     370:	42                   	inc    %edx
     371:	5f                   	pop    %edi
     372:	43                   	inc    %ebx
     373:	4f                   	dec    %edi
     374:	4e                   	dec    %esi
     375:	54                   	push   %esp
     376:	52                   	push   %edx
     377:	4f                   	dec    %edi
     378:	4c                   	dec    %esp
     379:	00 5f 53             	add    %bl,0x53(%edi)
     37c:	43                   	inc    %ebx
     37d:	5f                   	pop    %edi
     37e:	54                   	push   %esp
     37f:	52                   	push   %edx
     380:	41                   	inc    %ecx
     381:	43                   	inc    %ebx
     382:	45                   	inc    %ebp
     383:	5f                   	pop    %edi
     384:	45                   	inc    %ebp
     385:	56                   	push   %esi
     386:	45                   	inc    %ebp
     387:	4e                   	dec    %esi
     388:	54                   	push   %esp
     389:	5f                   	pop    %edi
     38a:	4e                   	dec    %esi
     38b:	41                   	inc    %ecx
     38c:	4d                   	dec    %ebp
     38d:	45                   	inc    %ebp
     38e:	5f                   	pop    %edi
     38f:	4d                   	dec    %ebp
     390:	41                   	inc    %ecx
     391:	58                   	pop    %eax
     392:	00 5f 5a             	add    %bl,0x5a(%edi)
     395:	36 73 6f             	ss jae 407 <__x86.get_pc_thunk.bx+0x7>
     398:	6d                   	insl   (%dx),%es:(%edi)
     399:	61                   	popa   
     39a:	69 6e 76 00 5f 53 43 	imul   $0x43535f00,0x76(%esi),%ebp
     3a1:	5f                   	pop    %edi
     3a2:	43                   	inc    %ebx
     3a3:	48                   	dec    %eax
     3a4:	41                   	inc    %ecx
     3a5:	52                   	push   %edx
     3a6:	5f                   	pop    %edi
     3a7:	4d                   	dec    %ebp
     3a8:	41                   	inc    %ecx
     3a9:	58                   	pop    %eax
     3aa:	00 50 54             	add    %dl,0x54(%eax)
     3ad:	48                   	dec    %eax
     3ae:	52                   	push   %edx
     3af:	45                   	inc    %ebp
     3b0:	41                   	inc    %ecx
     3b1:	44                   	inc    %esp
     3b2:	5f                   	pop    %edi
     3b3:	4d                   	dec    %ebp
     3b4:	55                   	push   %ebp
     3b5:	54                   	push   %esp
     3b6:	45                   	inc    %ebp
     3b7:	58                   	pop    %eax
     3b8:	5f                   	pop    %edi
     3b9:	53                   	push   %ebx
     3ba:	54                   	push   %esp
     3bb:	41                   	inc    %ecx
     3bc:	4c                   	dec    %esp
     3bd:	4c                   	dec    %esp
     3be:	45                   	inc    %ebp
     3bf:	44                   	inc    %esp
     3c0:	00 5f 53             	add    %bl,0x53(%edi)
     3c3:	43                   	inc    %ebx
     3c4:	5f                   	pop    %edi
     3c5:	54                   	push   %esp
     3c6:	52                   	push   %edx
     3c7:	41                   	inc    %ecx
     3c8:	43                   	inc    %ebx
     3c9:	45                   	inc    %ebp
     3ca:	5f                   	pop    %edi
     3cb:	49                   	dec    %ecx
     3cc:	4e                   	dec    %esi
     3cd:	48                   	dec    %eax
     3ce:	45                   	inc    %ebp
     3cf:	52                   	push   %edx
     3d0:	49                   	dec    %ecx
     3d1:	54                   	push   %esp
     3d2:	00 5f 53             	add    %bl,0x53(%edi)
     3d5:	43                   	inc    %ebx
     3d6:	5f                   	pop    %edi
     3d7:	58                   	pop    %eax
     3d8:	4f                   	dec    %edi
     3d9:	50                   	push   %eax
     3da:	45                   	inc    %ebp
     3db:	4e                   	dec    %esi
     3dc:	5f                   	pop    %edi
     3dd:	56                   	push   %esi
     3de:	45                   	inc    %ebp
     3df:	52                   	push   %edx
     3e0:	53                   	push   %ebx
     3e1:	49                   	dec    %ecx
     3e2:	4f                   	dec    %edi
     3e3:	4e                   	dec    %esi
     3e4:	00 5f 53             	add    %bl,0x53(%edi)
     3e7:	43                   	inc    %ebx
     3e8:	5f                   	pop    %edi
     3e9:	47                   	inc    %edi
     3ea:	45                   	inc    %ebp
     3eb:	54                   	push   %esp
     3ec:	47                   	inc    %edi
     3ed:	52                   	push   %edx
     3ee:	5f                   	pop    %edi
     3ef:	52                   	push   %edx
     3f0:	5f                   	pop    %edi
     3f1:	53                   	push   %ebx
     3f2:	49                   	dec    %ecx
     3f3:	5a                   	pop    %edx
     3f4:	45                   	inc    %ebp
     3f5:	5f                   	pop    %edi
     3f6:	4d                   	dec    %ebp
     3f7:	41                   	inc    %ecx
     3f8:	58                   	pop    %eax
     3f9:	00 5f 53             	add    %bl,0x53(%edi)
     3fc:	43                   	inc    %ebx
     3fd:	5f                   	pop    %edi
     3fe:	50                   	push   %eax
     3ff:	49                   	dec    %ecx
     400:	49                   	dec    %ecx
     401:	5f                   	pop    %edi
     402:	53                   	push   %ebx
     403:	4f                   	dec    %edi
     404:	43                   	inc    %ebx
     405:	4b                   	dec    %ebx
     406:	45                   	inc    %ebp
     407:	54                   	push   %esp
     408:	00 5f 53             	add    %bl,0x53(%edi)
     40b:	43                   	inc    %ebx
     40c:	5f                   	pop    %edi
     40d:	53                   	push   %ebx
     40e:	41                   	inc    %ecx
     40f:	56                   	push   %esi
     410:	45                   	inc    %ebp
     411:	44                   	inc    %esp
     412:	5f                   	pop    %edi
     413:	49                   	dec    %ecx
     414:	44                   	inc    %esp
     415:	53                   	push   %ebx
     416:	00 5f 53             	add    %bl,0x53(%edi)
     419:	43                   	inc    %ebx
     41a:	5f                   	pop    %edi
     41b:	53                   	push   %ebx
     41c:	43                   	inc    %ebx
     41d:	48                   	dec    %eax
     41e:	41                   	inc    %ecx
     41f:	52                   	push   %edx
     420:	5f                   	pop    %edi
     421:	4d                   	dec    %ebp
     422:	41                   	inc    %ecx
     423:	58                   	pop    %eax
     424:	00 5f 53             	add    %bl,0x53(%edi)
     427:	43                   	inc    %ebx
     428:	5f                   	pop    %edi
     429:	41                   	inc    %ecx
     42a:	52                   	push   %edx
     42b:	47                   	inc    %edi
     42c:	5f                   	pop    %edi
     42d:	4d                   	dec    %ebp
     42e:	41                   	inc    %ecx
     42f:	58                   	pop    %eax
     430:	00 5f 53             	add    %bl,0x53(%edi)
     433:	43                   	inc    %ebx
     434:	5f                   	pop    %edi
     435:	54                   	push   %esp
     436:	49                   	dec    %ecx
     437:	4d                   	dec    %ebp
     438:	45                   	inc    %ebp
     439:	4f                   	dec    %edi
     43a:	55                   	push   %ebp
     43b:	54                   	push   %esp
     43c:	53                   	push   %ebx
     43d:	00 5f 53             	add    %bl,0x53(%edi)
     440:	43                   	inc    %ebx
     441:	5f                   	pop    %edi
     442:	43                   	inc    %ebx
     443:	48                   	dec    %eax
     444:	41                   	inc    %ecx
     445:	52                   	push   %edx
     446:	5f                   	pop    %edi
     447:	42                   	inc    %edx
     448:	49                   	dec    %ecx
     449:	54                   	push   %esp
     44a:	00 5f 53             	add    %bl,0x53(%edi)
     44d:	43                   	inc    %ebx
     44e:	5f                   	pop    %edi
     44f:	41                   	inc    %ecx
     450:	49                   	dec    %ecx
     451:	4f                   	dec    %edi
     452:	5f                   	pop    %edi
     453:	4c                   	dec    %esp
     454:	49                   	dec    %ecx
     455:	53                   	push   %ebx
     456:	54                   	push   %esp
     457:	49                   	dec    %ecx
     458:	4f                   	dec    %edi
     459:	5f                   	pop    %edi
     45a:	4d                   	dec    %ebp
     45b:	41                   	inc    %ecx
     45c:	58                   	pop    %eax
     45d:	00 5f 53             	add    %bl,0x53(%edi)
     460:	43                   	inc    %ebx
     461:	5f                   	pop    %edi
     462:	4d                   	dec    %ebp
     463:	42                   	inc    %edx
     464:	5f                   	pop    %edi
     465:	4c                   	dec    %esp
     466:	45                   	inc    %ebp
     467:	4e                   	dec    %esi
     468:	5f                   	pop    %edi
     469:	4d                   	dec    %ebp
     46a:	41                   	inc    %ecx
     46b:	58                   	pop    %eax
     46c:	00 5f 53             	add    %bl,0x53(%edi)
     46f:	43                   	inc    %ebx
     470:	5f                   	pop    %edi
     471:	54                   	push   %esp
     472:	48                   	dec    %eax
     473:	52                   	push   %edx
     474:	45                   	inc    %ebp
     475:	41                   	inc    %ecx
     476:	44                   	inc    %esp
     477:	5f                   	pop    %edi
     478:	50                   	push   %eax
     479:	52                   	push   %edx
     47a:	49                   	dec    %ecx
     47b:	4f                   	dec    %edi
     47c:	5f                   	pop    %edi
     47d:	50                   	push   %eax
     47e:	52                   	push   %edx
     47f:	4f                   	dec    %edi
     480:	54                   	push   %esp
     481:	45                   	inc    %ebp
     482:	43                   	inc    %ebx
     483:	54                   	push   %esp
     484:	00 5f 53             	add    %bl,0x53(%edi)
     487:	43                   	inc    %ebx
     488:	5f                   	pop    %edi
     489:	50                   	push   %eax
     48a:	49                   	dec    %ecx
     48b:	49                   	dec    %ecx
     48c:	5f                   	pop    %edi
     48d:	49                   	dec    %ecx
     48e:	4e                   	dec    %esi
     48f:	54                   	push   %esp
     490:	45                   	inc    %ebp
     491:	52                   	push   %edx
     492:	4e                   	dec    %esi
     493:	45                   	inc    %ebp
     494:	54                   	push   %esp
     495:	00 5f 53             	add    %bl,0x53(%edi)
     498:	43                   	inc    %ebx
     499:	5f                   	pop    %edi
     49a:	54                   	push   %esp
     49b:	48                   	dec    %eax
     49c:	52                   	push   %edx
     49d:	45                   	inc    %ebp
     49e:	41                   	inc    %ecx
     49f:	44                   	inc    %esp
     4a0:	5f                   	pop    %edi
     4a1:	50                   	push   %eax
     4a2:	52                   	push   %edx
     4a3:	4f                   	dec    %edi
     4a4:	43                   	inc    %ebx
     4a5:	45                   	inc    %ebp
     4a6:	53                   	push   %ebx
     4a7:	53                   	push   %ebx
     4a8:	5f                   	pop    %edi
     4a9:	53                   	push   %ebx
     4aa:	48                   	dec    %eax
     4ab:	41                   	inc    %ecx
     4ac:	52                   	push   %edx
     4ad:	45                   	inc    %ebp
     4ae:	44                   	inc    %esp
     4af:	00 5f 53             	add    %bl,0x53(%edi)
     4b2:	43                   	inc    %ebx
     4b3:	5f                   	pop    %edi
     4b4:	54                   	push   %esp
     4b5:	52                   	push   %edx
     4b6:	41                   	inc    %ecx
     4b7:	43                   	inc    %ebx
     4b8:	45                   	inc    %ebp
     4b9:	5f                   	pop    %edi
     4ba:	4e                   	dec    %esi
     4bb:	41                   	inc    %ecx
     4bc:	4d                   	dec    %ebp
     4bd:	45                   	inc    %ebp
     4be:	5f                   	pop    %edi
     4bf:	4d                   	dec    %ebp
     4c0:	41                   	inc    %ecx
     4c1:	58                   	pop    %eax
     4c2:	00 5f 53             	add    %bl,0x53(%edi)
     4c5:	43                   	inc    %ebx
     4c6:	5f                   	pop    %edi
     4c7:	50                   	push   %eax
     4c8:	49                   	dec    %ecx
     4c9:	49                   	dec    %ecx
     4ca:	00 5f 53             	add    %bl,0x53(%edi)
     4cd:	43                   	inc    %ebx
     4ce:	5f                   	pop    %edi
     4cf:	41                   	inc    %ecx
     4d0:	49                   	dec    %ecx
     4d1:	4f                   	dec    %edi
     4d2:	5f                   	pop    %edi
     4d3:	50                   	push   %eax
     4d4:	52                   	push   %edx
     4d5:	49                   	dec    %ecx
     4d6:	4f                   	dec    %edi
     4d7:	5f                   	pop    %edi
     4d8:	44                   	inc    %esp
     4d9:	45                   	inc    %ebp
     4da:	4c                   	dec    %esp
     4db:	54                   	push   %esp
     4dc:	41                   	inc    %ecx
     4dd:	5f                   	pop    %edi
     4de:	4d                   	dec    %ebp
     4df:	41                   	inc    %ecx
     4e0:	58                   	pop    %eax
     4e1:	00 5f 53             	add    %bl,0x53(%edi)
     4e4:	43                   	inc    %ebx
     4e5:	5f                   	pop    %edi
     4e6:	4d                   	dec    %ebp
     4e7:	45                   	inc    %ebp
     4e8:	4d                   	dec    %ebp
     4e9:	4f                   	dec    %edi
     4ea:	52                   	push   %edx
     4eb:	59                   	pop    %ecx
     4ec:	5f                   	pop    %edi
     4ed:	50                   	push   %eax
     4ee:	52                   	push   %edx
     4ef:	4f                   	dec    %edi
     4f0:	54                   	push   %esp
     4f1:	45                   	inc    %ebp
     4f2:	43                   	inc    %ebx
     4f3:	54                   	push   %esp
     4f4:	49                   	dec    %ecx
     4f5:	4f                   	dec    %edi
     4f6:	4e                   	dec    %esi
     4f7:	00 5f 53             	add    %bl,0x53(%edi)
     4fa:	43                   	inc    %ebx
     4fb:	5f                   	pop    %edi
     4fc:	4f                   	dec    %edi
     4fd:	50                   	push   %eax
     4fe:	45                   	inc    %ebp
     4ff:	4e                   	dec    %esi
     500:	5f                   	pop    %edi
     501:	4d                   	dec    %ebp
     502:	41                   	inc    %ecx
     503:	58                   	pop    %eax
     504:	00 5f 53             	add    %bl,0x53(%edi)
     507:	43                   	inc    %ebx
     508:	5f                   	pop    %edi
     509:	54                   	push   %esp
     50a:	48                   	dec    %eax
     50b:	52                   	push   %edx
     50c:	45                   	inc    %ebp
     50d:	41                   	inc    %ecx
     50e:	44                   	inc    %esp
     50f:	5f                   	pop    %edi
     510:	54                   	push   %esp
     511:	48                   	dec    %eax
     512:	52                   	push   %edx
     513:	45                   	inc    %ebp
     514:	41                   	inc    %ecx
     515:	44                   	inc    %esp
     516:	53                   	push   %ebx
     517:	5f                   	pop    %edi
     518:	4d                   	dec    %ebp
     519:	41                   	inc    %ecx
     51a:	58                   	pop    %eax
     51b:	00 5f 53             	add    %bl,0x53(%edi)
     51e:	43                   	inc    %ebx
     51f:	5f                   	pop    %edi
     520:	52                   	push   %edx
     521:	45                   	inc    %ebp
     522:	41                   	inc    %ecx
     523:	44                   	inc    %esp
     524:	45                   	inc    %ebp
     525:	52                   	push   %edx
     526:	5f                   	pop    %edi
     527:	57                   	push   %edi
     528:	52                   	push   %edx
     529:	49                   	dec    %ecx
     52a:	54                   	push   %esp
     52b:	45                   	inc    %ebp
     52c:	52                   	push   %edx
     52d:	5f                   	pop    %edi
     52e:	4c                   	dec    %esp
     52f:	4f                   	dec    %edi
     530:	43                   	inc    %ebx
     531:	4b                   	dec    %ebx
     532:	53                   	push   %ebx
     533:	00 5f 53             	add    %bl,0x53(%edi)
     536:	43                   	inc    %ebx
     537:	5f                   	pop    %edi
     538:	53                   	push   %ebx
     539:	54                   	push   %esp
     53a:	52                   	push   %edx
     53b:	45                   	inc    %ebp
     53c:	41                   	inc    %ecx
     53d:	4d                   	dec    %ebp
     53e:	53                   	push   %ebx
     53f:	00 5f 53             	add    %bl,0x53(%edi)
     542:	43                   	inc    %ebx
     543:	5f                   	pop    %edi
     544:	4d                   	dec    %ebp
     545:	51                   	push   %ecx
     546:	5f                   	pop    %edi
     547:	4f                   	dec    %edi
     548:	50                   	push   %eax
     549:	45                   	inc    %ebp
     54a:	4e                   	dec    %esi
     54b:	5f                   	pop    %edi
			54b: R_386_32	x
     54c:	4d                   	dec    %ebp
     54d:	41                   	inc    %ecx
     54e:	58                   	pop    %eax
     54f:	00 5f 53             	add    %bl,0x53(%edi)
     552:	43                   	inc    %ebx
     553:	5f                   	pop    %edi
     554:	46                   	inc    %esi
     555:	49                   	dec    %ecx
     556:	46                   	inc    %esi
     557:	4f                   	dec    %edi
     558:	00 50 54             	add    %dl,0x54(%eax)
			55a: R_386_32	payloadBuffer
     55b:	48                   	dec    %eax
     55c:	52                   	push   %edx
     55d:	45                   	inc    %ebp
     55e:	41                   	inc    %ecx
     55f:	44                   	inc    %esp
			55f: R_386_PC32	test_simple
     560:	5f                   	pop    %edi
     561:	4d                   	dec    %ebp
     562:	55                   	push   %ebp
     563:	54                   	push   %esp
     564:	45                   	inc    %ebp
     565:	58                   	pop    %eax
     566:	5f                   	pop    %edi
     567:	52                   	push   %edx
     568:	4f                   	dec    %edi
     569:	42                   	inc    %edx
     56a:	55                   	push   %ebp
     56b:	53                   	push   %ebx
     56c:	54                   	push   %esp
     56d:	5f                   	pop    %edi
     56e:	4e                   	dec    %esi
     56f:	50                   	push   %eax
     570:	00 5f 53             	add    %bl,0x53(%edi)
     573:	43                   	inc    %ebx
     574:	5f                   	pop    %edi
     575:	32 5f 43             	xor    0x43(%edi),%bl
     578:	5f                   	pop    %edi
     579:	56                   	push   %esi
     57a:	45                   	inc    %ebp
     57b:	52                   	push   %edx
     57c:	53                   	push   %ebx
     57d:	49                   	dec    %ecx
     57e:	4f                   	dec    %edi
     57f:	4e                   	dec    %esi
     580:	00 5f 53             	add    %bl,0x53(%edi)
     583:	43                   	inc    %ebx
     584:	5f                   	pop    %edi
     585:	54                   	push   %esp
     586:	48                   	dec    %eax
     587:	52                   	push   %edx
     588:	45                   	inc    %ebp
     589:	41                   	inc    %ecx
     58a:	44                   	inc    %esp
     58b:	5f                   	pop    %edi
     58c:	52                   	push   %edx
     58d:	4f                   	dec    %edi
     58e:	42                   	inc    %edx
     58f:	55                   	push   %ebp
     590:	53                   	push   %ebx
     591:	54                   	push   %esp
     592:	5f                   	pop    %edi
     593:	50                   	push   %eax
     594:	52                   	push   %edx
     595:	49                   	dec    %ecx
     596:	4f                   	dec    %edi
     597:	5f                   	pop    %edi
     598:	50                   	push   %eax
     599:	52                   	push   %edx
     59a:	4f                   	dec    %edi
     59b:	54                   	push   %esp
     59c:	45                   	inc    %ebp
     59d:	43                   	inc    %ebx
     59e:	54                   	push   %esp
     59f:	00 5f 53             	add    %bl,0x53(%edi)
     5a2:	43                   	inc    %ebx
     5a3:	5f                   	pop    %edi
     5a4:	42                   	inc    %edx
     5a5:	43                   	inc    %ebx
     5a6:	5f                   	pop    %edi
     5a7:	44                   	inc    %esp
     5a8:	49                   	dec    %ecx
     5a9:	4d                   	dec    %ebp
     5aa:	5f                   	pop    %edi
     5ab:	4d                   	dec    %ebp
     5ac:	41                   	inc    %ecx
     5ad:	58                   	pop    %eax
     5ae:	00 5f 53             	add    %bl,0x53(%edi)
     5b1:	43                   	inc    %ebx
     5b2:	5f                   	pop    %edi
     5b3:	54                   	push   %esp
     5b4:	48                   	dec    %eax
     5b5:	52                   	push   %edx
     5b6:	45                   	inc    %ebp
     5b7:	41                   	inc    %ecx
     5b8:	44                   	inc    %esp
     5b9:	5f                   	pop    %edi
     5ba:	41                   	inc    %ecx
     5bb:	54                   	push   %esp
     5bc:	54                   	push   %esp
     5bd:	52                   	push   %edx
     5be:	5f                   	pop    %edi
     5bf:	53                   	push   %ebx
     5c0:	54                   	push   %esp
     5c1:	41                   	inc    %ecx
     5c2:	43                   	inc    %ebx
     5c3:	4b                   	dec    %ebx
     5c4:	41                   	inc    %ecx
     5c5:	44                   	inc    %esp
     5c6:	44                   	inc    %esp
     5c7:	52                   	push   %edx
     5c8:	00 5f 53             	add    %bl,0x53(%edi)
     5cb:	43                   	inc    %ebx
     5cc:	5f                   	pop    %edi
     5cd:	56                   	push   %esi
     5ce:	37                   	aaa    
     5cf:	5f                   	pop    %edi
     5d0:	49                   	dec    %ecx
     5d1:	4c                   	dec    %esp
     5d2:	50                   	push   %eax
     5d3:	33 32                	xor    (%edx),%esi
     5d5:	5f                   	pop    %edi
     5d6:	4f                   	dec    %edi
     5d7:	46                   	inc    %esi
     5d8:	46                   	inc    %esi
     5d9:	33 32                	xor    (%edx),%esi
     5db:	00 5f 53             	add    %bl,0x53(%edi)
     5de:	43                   	inc    %ebx
     5df:	5f                   	pop    %edi
     5e0:	55                   	push   %ebp
     5e1:	49                   	dec    %ecx
     5e2:	4e                   	dec    %esi
     5e3:	54                   	push   %esp
     5e4:	5f                   	pop    %edi
     5e5:	4d                   	dec    %ebp
     5e6:	41                   	inc    %ecx
     5e7:	58                   	pop    %eax
     5e8:	00 5f 53             	add    %bl,0x53(%edi)
     5eb:	43                   	inc    %ebx
     5ec:	5f                   	pop    %edi
     5ed:	32 5f 50             	xor    0x50(%edi),%bl
     5f0:	42                   	inc    %edx
     5f1:	53                   	push   %ebx
     5f2:	5f                   	pop    %edi
     5f3:	4c                   	dec    %esp
     5f4:	4f                   	dec    %edi
     5f5:	43                   	inc    %ebx
     5f6:	41                   	inc    %ecx
     5f7:	54                   	push   %esp
     5f8:	45                   	inc    %ebp
     5f9:	00 5f 53             	add    %bl,0x53(%edi)
     5fc:	43                   	inc    %ebx
     5fd:	5f                   	pop    %edi
     5fe:	4c                   	dec    %esp
     5ff:	45                   	inc    %ebp
     600:	56                   	push   %esi
     601:	45                   	inc    %ebp
     602:	4c                   	dec    %esp
     603:	31 5f 44             	xor    %ebx,0x44(%edi)
     606:	43                   	inc    %ebx
     607:	41                   	inc    %ecx
     608:	43                   	inc    %ebx
     609:	48                   	dec    %eax
     60a:	45                   	inc    %ebp
     60b:	5f                   	pop    %edi
     60c:	4c                   	dec    %esp
     60d:	49                   	dec    %ecx
     60e:	4e                   	dec    %esi
     60f:	45                   	inc    %ebp
     610:	53                   	push   %ebx
     611:	49                   	dec    %ecx
     612:	5a                   	pop    %edx
     613:	45                   	inc    %ebp
     614:	00 50 61             	add    %dl,0x61(%eax)
     617:	79 6c                	jns    685 <__FRAME_END__+0x41>
     619:	6f                   	outsl  %ds:(%esi),(%dx)
     61a:	61                   	popa   
     61b:	64 00 5f 53          	add    %bl,%fs:0x53(%edi)
     61f:	43                   	inc    %ebx
     620:	5f                   	pop    %edi
     621:	54                   	push   %esp
     622:	52                   	push   %edx
     623:	41                   	inc    %ecx
     624:	43                   	inc    %ebx
     625:	45                   	inc    %ebp
     626:	5f                   	pop    %edi
     627:	45                   	inc    %ebp
     628:	56                   	push   %esi
     629:	45                   	inc    %ebp
     62a:	4e                   	dec    %esi
     62b:	54                   	push   %esp
     62c:	5f                   	pop    %edi
     62d:	46                   	inc    %esi
     62e:	49                   	dec    %ecx
     62f:	4c                   	dec    %esp
     630:	54                   	push   %esp
     631:	45                   	inc    %ebp
     632:	52                   	push   %edx
     633:	00 5f 53             	add    %bl,0x53(%edi)
     636:	43                   	inc    %ebx
     637:	5f                   	pop    %edi
     638:	4e                   	dec    %esi
     639:	4c                   	dec    %esp
     63a:	5f                   	pop    %edi
     63b:	4c                   	dec    %esp
     63c:	41                   	inc    %ecx
     63d:	4e                   	dec    %esi
     63e:	47                   	inc    %edi
     63f:	4d                   	dec    %ebp
     640:	41                   	inc    %ecx
     641:	58                   	pop    %eax
     642:	00 5f 53             	add    %bl,0x53(%edi)
     645:	43                   	inc    %ebx
     646:	5f                   	pop    %edi
     647:	56                   	push   %esi
     648:	36 5f                	ss pop %edi
     64a:	4c                   	dec    %esp
     64b:	50                   	push   %eax
     64c:	36 34 5f             	ss xor $0x5f,%al
     64f:	4f                   	dec    %edi
     650:	46                   	inc    %esi
     651:	46                   	inc    %esi
     652:	36 34 00             	ss xor $0x0,%al
     655:	5f                   	pop    %edi
     656:	53                   	push   %ebx
     657:	43                   	inc    %ebx
     658:	5f                   	pop    %edi
     659:	4e                   	dec    %esi
     65a:	4c                   	dec    %esp
     65b:	5f                   	pop    %edi
     65c:	4d                   	dec    %ebp
     65d:	53                   	push   %ebx
     65e:	47                   	inc    %edi
     65f:	4d                   	dec    %ebp
     660:	41                   	inc    %ecx
     661:	58                   	pop    %eax
     662:	00 5f 53             	add    %bl,0x53(%edi)
     665:	43                   	inc    %ebx
     666:	5f                   	pop    %edi
     667:	50                   	push   %eax
     668:	49                   	dec    %ecx
     669:	49                   	dec    %ecx
     66a:	5f                   	pop    %edi
     66b:	4f                   	dec    %edi
     66c:	53                   	push   %ebx
     66d:	49                   	dec    %ecx
     66e:	5f                   	pop    %edi
     66f:	43                   	inc    %ebx
     670:	4c                   	dec    %esp
     671:	54                   	push   %esp
     672:	53                   	push   %ebx
     673:	00 5f 53             	add    %bl,0x53(%edi)
     676:	43                   	inc    %ebx
     677:	5f                   	pop    %edi
     678:	4c                   	dec    %esp
     679:	45                   	inc    %ebp
     67a:	56                   	push   %esi
     67b:	45                   	inc    %ebp
     67c:	4c                   	dec    %esp
     67d:	31 5f 49             	xor    %ebx,0x49(%edi)
     680:	43                   	inc    %ebx
     681:	41                   	inc    %ecx
     682:	43                   	inc    %ebx
     683:	48                   	dec    %eax
     684:	45                   	inc    %ebp
     685:	5f                   	pop    %edi
     686:	41                   	inc    %ecx
     687:	53                   	push   %ebx
     688:	53                   	push   %ebx
     689:	4f                   	dec    %edi
     68a:	43                   	inc    %ebx
     68b:	00 5f 53             	add    %bl,0x53(%edi)
     68e:	43                   	inc    %ebx
     68f:	5f                   	pop    %edi
     690:	44                   	inc    %esp
     691:	45                   	inc    %ebp
     692:	56                   	push   %esi
     693:	49                   	dec    %ecx
     694:	43                   	inc    %ebx
     695:	45                   	inc    %ebp
     696:	5f                   	pop    %edi
     697:	53                   	push   %ebx
     698:	50                   	push   %eax
     699:	45                   	inc    %ebp
     69a:	43                   	inc    %ebx
     69b:	49                   	dec    %ecx
     69c:	46                   	inc    %esi
     69d:	49                   	dec    %ecx
     69e:	43                   	inc    %ebx
     69f:	5f                   	pop    %edi
     6a0:	52                   	push   %edx
     6a1:	00 5f 53             	add    %bl,0x53(%edi)
     6a4:	43                   	inc    %ebx
     6a5:	5f                   	pop    %edi
     6a6:	4e                   	dec    %esi
     6a7:	5a                   	pop    %edx
     6a8:	45                   	inc    %ebp
     6a9:	52                   	push   %edx
     6aa:	4f                   	dec    %edi
     6ab:	00 50 54             	add    %dl,0x54(%eax)
     6ae:	48                   	dec    %eax
     6af:	52                   	push   %edx
     6b0:	45                   	inc    %ebp
     6b1:	41                   	inc    %ecx
     6b2:	44                   	inc    %esp
     6b3:	5f                   	pop    %edi
     6b4:	52                   	push   %edx
     6b5:	57                   	push   %edi
     6b6:	4c                   	dec    %esp
     6b7:	4f                   	dec    %edi
     6b8:	43                   	inc    %ebx
     6b9:	4b                   	dec    %ebx
     6ba:	5f                   	pop    %edi
     6bb:	50                   	push   %eax
     6bc:	52                   	push   %edx
     6bd:	45                   	inc    %ebp
     6be:	46                   	inc    %esi
     6bf:	45                   	inc    %ebp
     6c0:	52                   	push   %edx
     6c1:	5f                   	pop    %edi
     6c2:	57                   	push   %edi
     6c3:	52                   	push   %edx
     6c4:	49                   	dec    %ecx
     6c5:	54                   	push   %esp
     6c6:	45                   	inc    %ebp
     6c7:	52                   	push   %edx
     6c8:	5f                   	pop    %edi
     6c9:	4e                   	dec    %esi
     6ca:	50                   	push   %eax
     6cb:	00 5f 53             	add    %bl,0x53(%edi)
     6ce:	43                   	inc    %ebx
     6cf:	5f                   	pop    %edi
     6d0:	58                   	pop    %eax
     6d1:	4f                   	dec    %edi
     6d2:	50                   	push   %eax
     6d3:	45                   	inc    %ebp
     6d4:	4e                   	dec    %esi
     6d5:	5f                   	pop    %edi
     6d6:	58                   	pop    %eax
     6d7:	50                   	push   %eax
     6d8:	47                   	inc    %edi
     6d9:	32 00                	xor    (%eax),%al
     6db:	5f                   	pop    %edi
     6dc:	53                   	push   %ebx
     6dd:	43                   	inc    %ebx
     6de:	5f                   	pop    %edi
     6df:	58                   	pop    %eax
     6e0:	4f                   	dec    %edi
     6e1:	50                   	push   %eax
     6e2:	45                   	inc    %ebp
     6e3:	4e                   	dec    %esi
     6e4:	5f                   	pop    %edi
     6e5:	58                   	pop    %eax
     6e6:	50                   	push   %eax
     6e7:	47                   	inc    %edi
     6e8:	33 00                	xor    (%eax),%eax
     6ea:	5f                   	pop    %edi
     6eb:	53                   	push   %ebx
     6ec:	43                   	inc    %ebx
     6ed:	5f                   	pop    %edi
     6ee:	58                   	pop    %eax
     6ef:	4f                   	dec    %edi
     6f0:	50                   	push   %eax
     6f1:	45                   	inc    %ebp
     6f2:	4e                   	dec    %esi
     6f3:	5f                   	pop    %edi
     6f4:	58                   	pop    %eax
     6f5:	50                   	push   %eax
     6f6:	47                   	inc    %edi
     6f7:	34 00                	xor    $0x0,%al
     6f9:	5f                   	pop    %edi
     6fa:	53                   	push   %ebx
     6fb:	43                   	inc    %ebx
     6fc:	5f                   	pop    %edi
     6fd:	55                   	push   %ebp
     6fe:	4c                   	dec    %esp
     6ff:	4f                   	dec    %edi
     700:	4e                   	dec    %esi
     701:	47                   	inc    %edi
     702:	5f                   	pop    %edi
     703:	4d                   	dec    %ebp
     704:	41                   	inc    %ecx
     705:	58                   	pop    %eax
     706:	00 5f 53             	add    %bl,0x53(%edi)
     709:	43                   	inc    %ebx
     70a:	5f                   	pop    %edi
     70b:	58                   	pop    %eax
     70c:	4f                   	dec    %edi
     70d:	50                   	push   %eax
     70e:	45                   	inc    %ebp
     70f:	4e                   	dec    %esi
     710:	5f                   	pop    %edi
     711:	45                   	inc    %ebp
     712:	4e                   	dec    %esi
     713:	48                   	dec    %eax
     714:	5f                   	pop    %edi
     715:	49                   	dec    %ecx
     716:	31 38                	xor    %edi,(%eax)
     718:	4e                   	dec    %esi
     719:	00 5f 53             	add    %bl,0x53(%edi)
     71c:	43                   	inc    %ebx
     71d:	5f                   	pop    %edi
     71e:	49                   	dec    %ecx
     71f:	4e                   	dec    %esi
     720:	54                   	push   %esp
     721:	5f                   	pop    %edi
     722:	4d                   	dec    %ebp
     723:	49                   	dec    %ecx
     724:	4e                   	dec    %esi
     725:	00 5f 53             	add    %bl,0x53(%edi)
     728:	43                   	inc    %ebx
     729:	5f                   	pop    %edi
     72a:	32 5f 55             	xor    0x55(%edi),%bl
     72d:	50                   	push   %eax
     72e:	45                   	inc    %ebp
     72f:	00 5f 53             	add    %bl,0x53(%edi)
     732:	43                   	inc    %ebx
     733:	5f                   	pop    %edi
     734:	50                   	push   %eax
     735:	41                   	inc    %ecx
     736:	47                   	inc    %edi
     737:	45                   	inc    %ebp
     738:	53                   	push   %ebx
     739:	49                   	dec    %ecx
     73a:	5a                   	pop    %edx
     73b:	45                   	inc    %ebp
     73c:	00 5f 53             	add    %bl,0x53(%edi)
     73f:	43                   	inc    %ebx
     740:	5f                   	pop    %edi
     741:	46                   	inc    %esi
     742:	49                   	dec    %ecx
     743:	4c                   	dec    %esp
     744:	45                   	inc    %ebp
     745:	5f                   	pop    %edi
     746:	53                   	push   %ebx
     747:	59                   	pop    %ecx
     748:	53                   	push   %ebx
     749:	54                   	push   %esp
     74a:	45                   	inc    %ebp
     74b:	4d                   	dec    %ebp
     74c:	00 50 54             	add    %dl,0x54(%eax)
     74f:	48                   	dec    %eax
     750:	52                   	push   %edx
     751:	45                   	inc    %ebp
     752:	41                   	inc    %ecx
     753:	44                   	inc    %esp
     754:	5f                   	pop    %edi
     755:	4d                   	dec    %ebp
     756:	55                   	push   %ebp
     757:	54                   	push   %esp
     758:	45                   	inc    %ebp
     759:	58                   	pop    %eax
     75a:	5f                   	pop    %edi
     75b:	53                   	push   %ebx
     75c:	54                   	push   %esp
     75d:	41                   	inc    %ecx
     75e:	4c                   	dec    %esp
     75f:	4c                   	dec    %esp
     760:	45                   	inc    %ebp
     761:	44                   	inc    %esp
     762:	5f                   	pop    %edi
     763:	4e                   	dec    %esi
     764:	50                   	push   %eax
     765:	00 5f 53             	add    %bl,0x53(%edi)
     768:	43                   	inc    %ebx
     769:	5f                   	pop    %edi
     76a:	32 5f 56             	xor    0x56(%edi),%bl
     76d:	45                   	inc    %ebp
     76e:	52                   	push   %edx
     76f:	53                   	push   %ebx
     770:	49                   	dec    %ecx
     771:	4f                   	dec    %edi
     772:	4e                   	dec    %esi
     773:	00 5f 53             	add    %bl,0x53(%edi)
     776:	43                   	inc    %ebx
     777:	5f                   	pop    %edi
     778:	52                   	push   %edx
     779:	45                   	inc    %ebp
     77a:	5f                   	pop    %edi
     77b:	44                   	inc    %esp
     77c:	55                   	push   %ebp
     77d:	50                   	push   %eax
     77e:	5f                   	pop    %edi
     77f:	4d                   	dec    %ebp
     780:	41                   	inc    %ecx
     781:	58                   	pop    %eax
     782:	00 5f 53             	add    %bl,0x53(%edi)
     785:	43                   	inc    %ebx
     786:	5f                   	pop    %edi
     787:	4c                   	dec    %esp
     788:	45                   	inc    %ebp
     789:	56                   	push   %esi
     78a:	45                   	inc    %ebp
     78b:	4c                   	dec    %esp
     78c:	33 5f 43             	xor    0x43(%edi),%ebx
     78f:	41                   	inc    %ecx
     790:	43                   	inc    %ebx
     791:	48                   	dec    %eax
     792:	45                   	inc    %ebp
     793:	5f                   	pop    %edi
     794:	41                   	inc    %ecx
     795:	53                   	push   %ebx
     796:	53                   	push   %ebx
     797:	4f                   	dec    %edi
     798:	43                   	inc    %ebx
     799:	00 5f 53             	add    %bl,0x53(%edi)
     79c:	43                   	inc    %ebx
     79d:	5f                   	pop    %edi
     79e:	32 5f 46             	xor    0x46(%edi),%bl
     7a1:	4f                   	dec    %edi
     7a2:	52                   	push   %edx
     7a3:	54                   	push   %esp
     7a4:	5f                   	pop    %edi
     7a5:	44                   	inc    %esp
     7a6:	45                   	inc    %ebp
     7a7:	56                   	push   %esi
     7a8:	00 5f 53             	add    %bl,0x53(%edi)
     7ab:	43                   	inc    %ebx
     7ac:	5f                   	pop    %edi
     7ad:	43                   	inc    %ebx
     7ae:	48                   	dec    %eax
     7af:	41                   	inc    %ecx
     7b0:	52                   	push   %edx
     7b1:	5f                   	pop    %edi
     7b2:	4d                   	dec    %ebp
     7b3:	49                   	dec    %ecx
     7b4:	4e                   	dec    %esi
     7b5:	00 5f 53             	add    %bl,0x53(%edi)
     7b8:	43                   	inc    %ebx
     7b9:	5f                   	pop    %edi
     7ba:	49                   	dec    %ecx
     7bb:	4f                   	dec    %edi
     7bc:	56                   	push   %esi
     7bd:	5f                   	pop    %edi
     7be:	4d                   	dec    %ebp
     7bf:	41                   	inc    %ecx
     7c0:	58                   	pop    %eax
     7c1:	00 5f 53             	add    %bl,0x53(%edi)
     7c4:	43                   	inc    %ebx
     7c5:	5f                   	pop    %edi
     7c6:	54                   	push   %esp
     7c7:	48                   	dec    %eax
     7c8:	52                   	push   %edx
     7c9:	45                   	inc    %ebp
     7ca:	41                   	inc    %ecx
     7cb:	44                   	inc    %esp
     7cc:	5f                   	pop    %edi
     7cd:	43                   	inc    %ebx
     7ce:	50                   	push   %eax
     7cf:	55                   	push   %ebp
     7d0:	54                   	push   %esp
     7d1:	49                   	dec    %ecx
     7d2:	4d                   	dec    %ebp
     7d3:	45                   	inc    %ebp
     7d4:	00 5f 53             	add    %bl,0x53(%edi)
     7d7:	43                   	inc    %ebx
     7d8:	5f                   	pop    %edi
     7d9:	53                   	push   %ebx
     7da:	59                   	pop    %ecx
     7db:	53                   	push   %ebx
     7dc:	54                   	push   %esp
     7dd:	45                   	inc    %ebp
     7de:	4d                   	dec    %ebp
     7df:	5f                   	pop    %edi
     7e0:	44                   	inc    %esp
     7e1:	41                   	inc    %ecx
     7e2:	54                   	push   %esp
     7e3:	41                   	inc    %ecx
     7e4:	42                   	inc    %edx
     7e5:	41                   	inc    %ecx
     7e6:	53                   	push   %ebx
     7e7:	45                   	inc    %ebp
     7e8:	00 5f 53             	add    %bl,0x53(%edi)
     7eb:	43                   	inc    %ebx
     7ec:	5f                   	pop    %edi
     7ed:	50                   	push   %eax
     7ee:	49                   	dec    %ecx
     7ef:	49                   	dec    %ecx
     7f0:	5f                   	pop    %edi
     7f1:	49                   	dec    %ecx
     7f2:	4e                   	dec    %esi
     7f3:	54                   	push   %esp
     7f4:	45                   	inc    %ebp
     7f5:	52                   	push   %edx
     7f6:	4e                   	dec    %esi
     7f7:	45                   	inc    %ebp
     7f8:	54                   	push   %esp
     7f9:	5f                   	pop    %edi
     7fa:	44                   	inc    %esp
     7fb:	47                   	inc    %edi
     7fc:	52                   	push   %edx
     7fd:	41                   	inc    %ecx
     7fe:	4d                   	dec    %ebp
     7ff:	00 50 54             	add    %dl,0x54(%eax)
     802:	48                   	dec    %eax
     803:	52                   	push   %edx
     804:	45                   	inc    %ebp
     805:	41                   	inc    %ecx
     806:	44                   	inc    %esp
     807:	5f                   	pop    %edi
     808:	4d                   	dec    %ebp
     809:	55                   	push   %ebp
     80a:	54                   	push   %esp
     80b:	45                   	inc    %ebp
     80c:	58                   	pop    %eax
     80d:	5f                   	pop    %edi
     80e:	41                   	inc    %ecx
     80f:	44                   	inc    %esp
     810:	41                   	inc    %ecx
     811:	50                   	push   %eax
     812:	54                   	push   %esp
     813:	49                   	dec    %ecx
     814:	56                   	push   %esi
     815:	45                   	inc    %ebp
     816:	5f                   	pop    %edi
     817:	4e                   	dec    %esi
     818:	50                   	push   %eax
     819:	00 5f 53             	add    %bl,0x53(%edi)
     81c:	43                   	inc    %ebx
     81d:	5f                   	pop    %edi
     81e:	46                   	inc    %esi
     81f:	49                   	dec    %ecx
     820:	4c                   	dec    %esp
     821:	45                   	inc    %ebp
     822:	5f                   	pop    %edi
     823:	4c                   	dec    %esp
     824:	4f                   	dec    %edi
     825:	43                   	inc    %ebx
     826:	4b                   	dec    %ebx
     827:	49                   	dec    %ecx
     828:	4e                   	dec    %esi
     829:	47                   	inc    %edi
     82a:	00 5f 53             	add    %bl,0x53(%edi)
     82d:	43                   	inc    %ebx
     82e:	5f                   	pop    %edi
     82f:	53                   	push   %ebx
     830:	43                   	inc    %ebx
     831:	48                   	dec    %eax
     832:	41                   	inc    %ecx
     833:	52                   	push   %edx
     834:	5f                   	pop    %edi
     835:	4d                   	dec    %ebp
     836:	49                   	dec    %ecx
     837:	4e                   	dec    %esi
     838:	00 5f 53             	add    %bl,0x53(%edi)
     83b:	43                   	inc    %ebx
     83c:	5f                   	pop    %edi
     83d:	55                   	push   %ebp
     83e:	49                   	dec    %ecx
     83f:	4f                   	dec    %edi
     840:	5f                   	pop    %edi
     841:	4d                   	dec    %ebp
     842:	41                   	inc    %ecx
     843:	58                   	pop    %eax
     844:	49                   	dec    %ecx
     845:	4f                   	dec    %edi
     846:	56                   	push   %esi
     847:	00 50 54             	add    %dl,0x54(%eax)
     84a:	48                   	dec    %eax
     84b:	52                   	push   %edx
     84c:	45                   	inc    %ebp
     84d:	41                   	inc    %ecx
     84e:	44                   	inc    %esp
     84f:	5f                   	pop    %edi
     850:	52                   	push   %edx
     851:	57                   	push   %edi
     852:	4c                   	dec    %esp
     853:	4f                   	dec    %edi
     854:	43                   	inc    %ebx
     855:	4b                   	dec    %ebx
     856:	5f                   	pop    %edi
     857:	50                   	push   %eax
     858:	52                   	push   %edx
     859:	45                   	inc    %ebp
     85a:	46                   	inc    %esi
     85b:	45                   	inc    %ebp
     85c:	52                   	push   %edx
     85d:	5f                   	pop    %edi
     85e:	52                   	push   %edx
     85f:	45                   	inc    %ebp
     860:	41                   	inc    %ecx
     861:	44                   	inc    %esp
     862:	45                   	inc    %ebp
     863:	52                   	push   %edx
     864:	5f                   	pop    %edi
     865:	4e                   	dec    %esi
     866:	50                   	push   %eax
     867:	00 5f 53             	add    %bl,0x53(%edi)
     86a:	43                   	inc    %ebx
     86b:	5f                   	pop    %edi
     86c:	56                   	push   %esi
     86d:	45                   	inc    %ebp
     86e:	52                   	push   %edx
     86f:	53                   	push   %ebx
     870:	49                   	dec    %ecx
     871:	4f                   	dec    %edi
     872:	4e                   	dec    %esi
     873:	00 50 54             	add    %dl,0x54(%eax)
     876:	48                   	dec    %eax
     877:	52                   	push   %edx
     878:	45                   	inc    %ebp
     879:	41                   	inc    %ecx
     87a:	44                   	inc    %esp
     87b:	5f                   	pop    %edi
     87c:	4d                   	dec    %ebp
     87d:	55                   	push   %ebp
     87e:	54                   	push   %esp
     87f:	45                   	inc    %ebp
     880:	58                   	pop    %eax
     881:	5f                   	pop    %edi
     882:	45                   	inc    %ebp
     883:	52                   	push   %edx
     884:	52                   	push   %edx
     885:	4f                   	dec    %edi
     886:	52                   	push   %edx
     887:	43                   	inc    %ebx
     888:	48                   	dec    %eax
     889:	45                   	inc    %ebp
     88a:	43                   	inc    %ebx
     88b:	4b                   	dec    %ebx
     88c:	00 5f 53             	add    %bl,0x53(%edi)
     88f:	43                   	inc    %ebx
     890:	5f                   	pop    %edi
     891:	53                   	push   %ebx
     892:	50                   	push   %eax
     893:	49                   	dec    %ecx
     894:	4e                   	dec    %esi
     895:	5f                   	pop    %edi
     896:	4c                   	dec    %esp
     897:	4f                   	dec    %edi
     898:	43                   	inc    %ebx
     899:	4b                   	dec    %ebx
     89a:	53                   	push   %ebx
     89b:	00 5f 53             	add    %bl,0x53(%edi)
     89e:	43                   	inc    %ebx
     89f:	5f                   	pop    %edi
     8a0:	4c                   	dec    %esp
     8a1:	45                   	inc    %ebp
     8a2:	56                   	push   %esi
     8a3:	45                   	inc    %ebp
     8a4:	4c                   	dec    %esp
     8a5:	31 5f 44             	xor    %ebx,0x44(%edi)
     8a8:	43                   	inc    %ebx
     8a9:	41                   	inc    %ecx
     8aa:	43                   	inc    %ebx
     8ab:	48                   	dec    %eax
     8ac:	45                   	inc    %ebp
     8ad:	5f                   	pop    %edi
     8ae:	53                   	push   %ebx
     8af:	49                   	dec    %ecx
     8b0:	5a                   	pop    %edx
     8b1:	45                   	inc    %ebp
     8b2:	00 5f 53             	add    %bl,0x53(%edi)
     8b5:	43                   	inc    %ebx
     8b6:	5f                   	pop    %edi
     8b7:	52                   	push   %edx
     8b8:	41                   	inc    %ecx
     8b9:	57                   	push   %edi
     8ba:	5f                   	pop    %edi
     8bb:	53                   	push   %ebx
     8bc:	4f                   	dec    %edi
     8bd:	43                   	inc    %ebx
     8be:	4b                   	dec    %ebx
     8bf:	45                   	inc    %ebp
     8c0:	54                   	push   %esp
     8c1:	53                   	push   %ebx
     8c2:	00 5f 53             	add    %bl,0x53(%edi)
     8c5:	43                   	inc    %ebx
     8c6:	5f                   	pop    %edi
     8c7:	54                   	push   %esp
     8c8:	48                   	dec    %eax
     8c9:	52                   	push   %edx
     8ca:	45                   	inc    %ebp
     8cb:	41                   	inc    %ecx
     8cc:	44                   	inc    %esp
     8cd:	53                   	push   %ebx
     8ce:	00 5f 53             	add    %bl,0x53(%edi)
     8d1:	43                   	inc    %ebx
     8d2:	5f                   	pop    %edi
     8d3:	54                   	push   %esp
     8d4:	48                   	dec    %eax
     8d5:	52                   	push   %edx
     8d6:	45                   	inc    %ebp
     8d7:	41                   	inc    %ecx
     8d8:	44                   	inc    %esp
     8d9:	5f                   	pop    %edi
     8da:	53                   	push   %ebx
     8db:	41                   	inc    %ecx
     8dc:	46                   	inc    %esi
     8dd:	45                   	inc    %ebp
     8de:	5f                   	pop    %edi
     8df:	46                   	inc    %esi
     8e0:	55                   	push   %ebp
     8e1:	4e                   	dec    %esi
     8e2:	43                   	inc    %ebx
     8e3:	54                   	push   %esp
     8e4:	49                   	dec    %ecx
     8e5:	4f                   	dec    %edi
     8e6:	4e                   	dec    %esi
     8e7:	53                   	push   %ebx
     8e8:	00 46 5f             	add    %al,0x5f(%esi)
     8eb:	4f                   	dec    %edi
     8ec:	57                   	push   %edi
     8ed:	4e                   	dec    %esi
     8ee:	45                   	inc    %ebp
     8ef:	52                   	push   %edx
     8f0:	5f                   	pop    %edi
     8f1:	54                   	push   %esp
     8f2:	49                   	dec    %ecx
     8f3:	44                   	inc    %esp
     8f4:	00 5f 53             	add    %bl,0x53(%edi)
     8f7:	43                   	inc    %ebx
     8f8:	5f                   	pop    %edi
     8f9:	57                   	push   %edi
     8fa:	4f                   	dec    %edi
     8fb:	52                   	push   %edx
     8fc:	44                   	inc    %esp
     8fd:	5f                   	pop    %edi
     8fe:	42                   	inc    %edx
     8ff:	49                   	dec    %ecx
     900:	54                   	push   %esp
     901:	00 5f 53             	add    %bl,0x53(%edi)
     904:	43                   	inc    %ebx
     905:	5f                   	pop    %edi
     906:	52                   	push   %edx
     907:	45                   	inc    %ebp
     908:	47                   	inc    %edi
     909:	45                   	inc    %ebp
     90a:	58                   	pop    %eax
     90b:	50                   	push   %eax
     90c:	00 5f 53             	add    %bl,0x53(%edi)
     90f:	43                   	inc    %ebx
     910:	5f                   	pop    %edi
     911:	41                   	inc    %ecx
     912:	53                   	push   %ebx
     913:	59                   	pop    %ecx
     914:	4e                   	dec    %esi
     915:	43                   	inc    %ebx
     916:	48                   	dec    %eax
     917:	52                   	push   %edx
     918:	4f                   	dec    %edi
     919:	4e                   	dec    %esi
     91a:	4f                   	dec    %edi
     91b:	55                   	push   %ebp
     91c:	53                   	push   %ebx
     91d:	5f                   	pop    %edi
     91e:	49                   	dec    %ecx
     91f:	4f                   	dec    %edi
     920:	00 5f 53             	add    %bl,0x53(%edi)
     923:	43                   	inc    %ebx
     924:	5f                   	pop    %edi
     925:	43                   	inc    %ebx
     926:	48                   	dec    %eax
     927:	41                   	inc    %ecx
     928:	52                   	push   %edx
     929:	43                   	inc    %ebx
     92a:	4c                   	dec    %esp
     92b:	41                   	inc    %ecx
     92c:	53                   	push   %ebx
     92d:	53                   	push   %ebx
     92e:	5f                   	pop    %edi
     92f:	4e                   	dec    %esi
     930:	41                   	inc    %ecx
     931:	4d                   	dec    %ebp
     932:	45                   	inc    %ebp
     933:	5f                   	pop    %edi
     934:	4d                   	dec    %ebp
     935:	41                   	inc    %ecx
     936:	58                   	pop    %eax
     937:	00 5f 53             	add    %bl,0x53(%edi)
     93a:	43                   	inc    %ebx
     93b:	5f                   	pop    %edi
     93c:	4c                   	dec    %esp
     93d:	45                   	inc    %ebp
     93e:	56                   	push   %esi
     93f:	45                   	inc    %ebp
     940:	4c                   	dec    %esp
     941:	31 5f 44             	xor    %ebx,0x44(%edi)
     944:	43                   	inc    %ebx
     945:	41                   	inc    %ecx
     946:	43                   	inc    %ebx
     947:	48                   	dec    %eax
     948:	45                   	inc    %ebp
     949:	5f                   	pop    %edi
     94a:	41                   	inc    %ecx
     94b:	53                   	push   %ebx
     94c:	53                   	push   %ebx
     94d:	4f                   	dec    %edi
     94e:	43                   	inc    %ebx
     94f:	00 5f 53             	add    %bl,0x53(%edi)
     952:	43                   	inc    %ebx
     953:	5f                   	pop    %edi
     954:	4c                   	dec    %esp
     955:	45                   	inc    %ebp
     956:	56                   	push   %esi
     957:	45                   	inc    %ebp
     958:	4c                   	dec    %esp
     959:	33 5f 43             	xor    0x43(%edi),%ebx
     95c:	41                   	inc    %ecx
     95d:	43                   	inc    %ebx
     95e:	48                   	dec    %eax
     95f:	45                   	inc    %ebp
     960:	5f                   	pop    %edi
     961:	4c                   	dec    %esp
     962:	49                   	dec    %ecx
     963:	4e                   	dec    %esi
     964:	45                   	inc    %ebp
     965:	53                   	push   %ebx
     966:	49                   	dec    %ecx
     967:	5a                   	pop    %edx
     968:	45                   	inc    %ebp
     969:	00 5f 53             	add    %bl,0x53(%edi)
     96c:	43                   	inc    %ebx
     96d:	5f                   	pop    %edi
     96e:	54                   	push   %esp
     96f:	48                   	dec    %eax
     970:	52                   	push   %edx
     971:	45                   	inc    %ebp
     972:	41                   	inc    %ecx
     973:	44                   	inc    %esp
     974:	5f                   	pop    %edi
     975:	53                   	push   %ebx
     976:	54                   	push   %esp
     977:	41                   	inc    %ecx
     978:	43                   	inc    %ebx
     979:	4b                   	dec    %ebx
     97a:	5f                   	pop    %edi
     97b:	4d                   	dec    %ebp
     97c:	49                   	dec    %ecx
     97d:	4e                   	dec    %esi
     97e:	00 5f 53             	add    %bl,0x53(%edi)
     981:	43                   	inc    %ebx
     982:	5f                   	pop    %edi
     983:	58                   	pop    %eax
     984:	4f                   	dec    %edi
     985:	50                   	push   %eax
     986:	45                   	inc    %ebp
     987:	4e                   	dec    %esi
     988:	5f                   	pop    %edi
     989:	55                   	push   %ebp
     98a:	4e                   	dec    %esi
     98b:	49                   	dec    %ecx
     98c:	58                   	pop    %eax
     98d:	00 5f 53             	add    %bl,0x53(%edi)
     990:	43                   	inc    %ebx
     991:	5f                   	pop    %edi
     992:	4e                   	dec    %esi
     993:	4c                   	dec    %esp
     994:	5f                   	pop    %edi
     995:	54                   	push   %esp
     996:	45                   	inc    %ebp
     997:	58                   	pop    %eax
     998:	54                   	push   %esp
     999:	4d                   	dec    %ebp
     99a:	41                   	inc    %ecx
     99b:	58                   	pop    %eax
     99c:	00 5f 53             	add    %bl,0x53(%edi)
     99f:	43                   	inc    %ebx
     9a0:	5f                   	pop    %edi
     9a1:	50                   	push   %eax
     9a2:	49                   	dec    %ecx
     9a3:	49                   	dec    %ecx
     9a4:	5f                   	pop    %edi
     9a5:	49                   	dec    %ecx
     9a6:	4e                   	dec    %esi
     9a7:	54                   	push   %esp
     9a8:	45                   	inc    %ebp
     9a9:	52                   	push   %edx
     9aa:	4e                   	dec    %esi
     9ab:	45                   	inc    %ebp
     9ac:	54                   	push   %esp
     9ad:	5f                   	pop    %edi
     9ae:	53                   	push   %ebx
     9af:	54                   	push   %esp
     9b0:	52                   	push   %edx
     9b1:	45                   	inc    %ebp
     9b2:	41                   	inc    %ecx
     9b3:	4d                   	dec    %ebp
     9b4:	00 5f 53             	add    %bl,0x53(%edi)
     9b7:	43                   	inc    %ebx
     9b8:	5f                   	pop    %edi
     9b9:	56                   	push   %esi
     9ba:	36 5f                	ss pop %edi
     9bc:	49                   	dec    %ecx
     9bd:	4c                   	dec    %esp
     9be:	50                   	push   %eax
     9bf:	33 32                	xor    (%edx),%esi
     9c1:	5f                   	pop    %edi
     9c2:	4f                   	dec    %edi
     9c3:	46                   	inc    %esi
     9c4:	46                   	inc    %esi
     9c5:	42                   	inc    %edx
     9c6:	49                   	dec    %ecx
     9c7:	47                   	inc    %edi
     9c8:	00 5f 53             	add    %bl,0x53(%edi)
     9cb:	43                   	inc    %ebx
     9cc:	5f                   	pop    %edi
     9cd:	56                   	push   %esi
     9ce:	37                   	aaa    
     9cf:	5f                   	pop    %edi
     9d0:	49                   	dec    %ecx
     9d1:	4c                   	dec    %esp
     9d2:	50                   	push   %eax
     9d3:	33 32                	xor    (%edx),%esi
     9d5:	5f                   	pop    %edi
     9d6:	4f                   	dec    %edi
     9d7:	46                   	inc    %esi
     9d8:	46                   	inc    %esi
     9d9:	42                   	inc    %edx
     9da:	49                   	dec    %ecx
     9db:	47                   	inc    %edi
     9dc:	00 5f 53             	add    %bl,0x53(%edi)
     9df:	43                   	inc    %ebx
     9e0:	5f                   	pop    %edi
     9e1:	53                   	push   %ebx
     9e2:	45                   	inc    %ebp
     9e3:	4d                   	dec    %ebp
     9e4:	41                   	inc    %ecx
     9e5:	50                   	push   %eax
     9e6:	48                   	dec    %eax
     9e7:	4f                   	dec    %edi
     9e8:	52                   	push   %edx
     9e9:	45                   	inc    %ebp
     9ea:	53                   	push   %ebx
     9eb:	00 5f 53             	add    %bl,0x53(%edi)
     9ee:	43                   	inc    %ebx
     9ef:	5f                   	pop    %edi
     9f0:	4c                   	dec    %esp
     9f1:	45                   	inc    %ebp
     9f2:	56                   	push   %esi
     9f3:	45                   	inc    %ebp
     9f4:	4c                   	dec    %esp
     9f5:	34 5f                	xor    $0x5f,%al
     9f7:	43                   	inc    %ebx
     9f8:	41                   	inc    %ecx
     9f9:	43                   	inc    %ebx
     9fa:	48                   	dec    %eax
     9fb:	45                   	inc    %ebp
     9fc:	5f                   	pop    %edi
     9fd:	53                   	push   %ebx
     9fe:	49                   	dec    %ecx
     9ff:	5a                   	pop    %edx
     a00:	45                   	inc    %ebp
     a01:	00 5f 53             	add    %bl,0x53(%edi)
     a04:	43                   	inc    %ebx
     a05:	5f                   	pop    %edi
     a06:	4d                   	dec    %ebp
     a07:	55                   	push   %ebp
     a08:	4c                   	dec    %esp
     a09:	54                   	push   %esp
     a0a:	49                   	dec    %ecx
     a0b:	5f                   	pop    %edi
     a0c:	50                   	push   %eax
     a0d:	52                   	push   %edx
     a0e:	4f                   	dec    %edi
     a0f:	43                   	inc    %ebx
     a10:	45                   	inc    %ebp
     a11:	53                   	push   %ebx
     a12:	53                   	push   %ebx
     a13:	00 5f 53             	add    %bl,0x53(%edi)
     a16:	43                   	inc    %ebx
     a17:	5f                   	pop    %edi
     a18:	4e                   	dec    %esi
     a19:	50                   	push   %eax
     a1a:	52                   	push   %edx
     a1b:	4f                   	dec    %edi
     a1c:	43                   	inc    %ebx
     a1d:	45                   	inc    %ebp
     a1e:	53                   	push   %ebx
     a1f:	53                   	push   %ebx
     a20:	4f                   	dec    %edi
     a21:	52                   	push   %edx
     a22:	53                   	push   %ebx
     a23:	5f                   	pop    %edi
     a24:	4f                   	dec    %edi
     a25:	4e                   	dec    %esi
     a26:	4c                   	dec    %esp
     a27:	4e                   	dec    %esi
     a28:	00 5f 53             	add    %bl,0x53(%edi)
     a2b:	43                   	inc    %ebx
     a2c:	5f                   	pop    %edi
     a2d:	55                   	push   %ebp
     a2e:	53                   	push   %ebx
     a2f:	45                   	inc    %ebp
     a30:	52                   	push   %edx
     a31:	5f                   	pop    %edi
     a32:	47                   	inc    %edi
     a33:	52                   	push   %edx
     a34:	4f                   	dec    %edi
     a35:	55                   	push   %ebp
     a36:	50                   	push   %eax
     a37:	53                   	push   %ebx
     a38:	00 5f 53             	add    %bl,0x53(%edi)
     a3b:	43                   	inc    %ebx
     a3c:	5f                   	pop    %edi
     a3d:	32 5f 4c             	xor    0x4c(%edi),%bl
     a40:	4f                   	dec    %edi
     a41:	43                   	inc    %ebx
     a42:	41                   	inc    %ecx
     a43:	4c                   	dec    %esp
     a44:	45                   	inc    %ebp
     a45:	44                   	inc    %esp
     a46:	45                   	inc    %ebp
     a47:	46                   	inc    %esi
     a48:	00 5f 53             	add    %bl,0x53(%edi)
     a4b:	43                   	inc    %ebx
     a4c:	5f                   	pop    %edi
     a4d:	4c                   	dec    %esp
     a4e:	49                   	dec    %ecx
     a4f:	4e                   	dec    %esi
     a50:	45                   	inc    %ebp
     a51:	5f                   	pop    %edi
     a52:	4d                   	dec    %ebp
     a53:	41                   	inc    %ecx
     a54:	58                   	pop    %eax
     a55:	00 5f 53             	add    %bl,0x53(%edi)
     a58:	43                   	inc    %ebx
     a59:	5f                   	pop    %edi
     a5a:	50                   	push   %eax
     a5b:	48                   	dec    %eax
     a5c:	59                   	pop    %ecx
     a5d:	53                   	push   %ebx
     a5e:	5f                   	pop    %edi
     a5f:	50                   	push   %eax
     a60:	41                   	inc    %ecx
     a61:	47                   	inc    %edi
     a62:	45                   	inc    %ebp
     a63:	53                   	push   %ebx
     a64:	00 5f 53             	add    %bl,0x53(%edi)
     a67:	43                   	inc    %ebx
     a68:	5f                   	pop    %edi
     a69:	58                   	pop    %eax
     a6a:	4f                   	dec    %edi
     a6b:	50                   	push   %eax
     a6c:	45                   	inc    %ebp
     a6d:	4e                   	dec    %esi
     a6e:	5f                   	pop    %edi
     a6f:	52                   	push   %edx
     a70:	45                   	inc    %ebp
     a71:	41                   	inc    %ecx
     a72:	4c                   	dec    %esp
     a73:	54                   	push   %esp
     a74:	49                   	dec    %ecx
     a75:	4d                   	dec    %ebp
     a76:	45                   	inc    %ebp
     a77:	00 5f 53             	add    %bl,0x53(%edi)
     a7a:	43                   	inc    %ebx
     a7b:	5f                   	pop    %edi
     a7c:	53                   	push   %ebx
     a7d:	49                   	dec    %ecx
     a7e:	47                   	inc    %edi
     a7f:	4e                   	dec    %esi
     a80:	41                   	inc    %ecx
     a81:	4c                   	dec    %esp
     a82:	53                   	push   %ebx
     a83:	00 5f 53             	add    %bl,0x53(%edi)
     a86:	43                   	inc    %ebx
     a87:	5f                   	pop    %edi
     a88:	4d                   	dec    %ebp
     a89:	4f                   	dec    %edi
     a8a:	4e                   	dec    %esi
     a8b:	4f                   	dec    %edi
     a8c:	54                   	push   %esp
     a8d:	4f                   	dec    %edi
     a8e:	4e                   	dec    %esi
     a8f:	49                   	dec    %ecx
     a90:	43                   	inc    %ebx
     a91:	5f                   	pop    %edi
     a92:	43                   	inc    %ebx
     a93:	4c                   	dec    %esp
     a94:	4f                   	dec    %edi
     a95:	43                   	inc    %ebx
     a96:	4b                   	dec    %ebx
     a97:	00 5f 53             	add    %bl,0x53(%edi)
     a9a:	43                   	inc    %ebx
     a9b:	5f                   	pop    %edi
     a9c:	52                   	push   %edx
     a9d:	54                   	push   %esp
     a9e:	53                   	push   %ebx
     a9f:	49                   	dec    %ecx
     aa0:	47                   	inc    %edi
     aa1:	5f                   	pop    %edi
     aa2:	4d                   	dec    %ebp
     aa3:	41                   	inc    %ecx
     aa4:	58                   	pop    %eax
     aa5:	00 5f 53             	add    %bl,0x53(%edi)
     aa8:	43                   	inc    %ebx
     aa9:	5f                   	pop    %edi
     aaa:	46                   	inc    %esi
     aab:	49                   	dec    %ecx
     aac:	4c                   	dec    %esp
     aad:	45                   	inc    %ebp
     aae:	5f                   	pop    %edi
     aaf:	41                   	inc    %ecx
     ab0:	54                   	push   %esp
     ab1:	54                   	push   %esp
     ab2:	52                   	push   %edx
     ab3:	49                   	dec    %ecx
     ab4:	42                   	inc    %edx
     ab5:	55                   	push   %ebp
     ab6:	54                   	push   %esp
     ab7:	45                   	inc    %ebp
     ab8:	53                   	push   %ebx
     ab9:	00 5f 53             	add    %bl,0x53(%edi)
     abc:	43                   	inc    %ebx
     abd:	5f                   	pop    %edi
     abe:	55                   	push   %ebp
     abf:	53                   	push   %ebx
     ac0:	45                   	inc    %ebp
     ac1:	52                   	push   %edx
     ac2:	5f                   	pop    %edi
     ac3:	47                   	inc    %edi
     ac4:	52                   	push   %edx
     ac5:	4f                   	dec    %edi
     ac6:	55                   	push   %ebp
     ac7:	50                   	push   %eax
     ac8:	53                   	push   %ebx
     ac9:	5f                   	pop    %edi
     aca:	52                   	push   %edx
     acb:	00 5f 53             	add    %bl,0x53(%edi)
     ace:	43                   	inc    %ebx
     acf:	5f                   	pop    %edi
     ad0:	58                   	pop    %eax
     ad1:	4f                   	dec    %edi
     ad2:	50                   	push   %eax
     ad3:	45                   	inc    %ebp
     ad4:	4e                   	dec    %esi
     ad5:	5f                   	pop    %edi
     ad6:	58                   	pop    %eax
     ad7:	43                   	inc    %ebx
     ad8:	55                   	push   %ebp
     ad9:	5f                   	pop    %edi
     ada:	56                   	push   %esi
     adb:	45                   	inc    %ebp
     adc:	52                   	push   %edx
     add:	53                   	push   %ebx
     ade:	49                   	dec    %ecx
     adf:	4f                   	dec    %edi
     ae0:	4e                   	dec    %esi
     ae1:	00 50 54             	add    %dl,0x54(%eax)
     ae4:	48                   	dec    %eax
     ae5:	52                   	push   %edx
     ae6:	45                   	inc    %ebp
     ae7:	41                   	inc    %ecx
     ae8:	44                   	inc    %esp
     ae9:	5f                   	pop    %edi
     aea:	4d                   	dec    %ebp
     aeb:	55                   	push   %ebp
     aec:	54                   	push   %esp
     aed:	45                   	inc    %ebp
     aee:	58                   	pop    %eax
     aef:	5f                   	pop    %edi
     af0:	54                   	push   %esp
     af1:	49                   	dec    %ecx
     af2:	4d                   	dec    %ebp
     af3:	45                   	inc    %ebp
     af4:	44                   	inc    %esp
     af5:	5f                   	pop    %edi
     af6:	4e                   	dec    %esi
     af7:	50                   	push   %eax
     af8:	00 5f 53             	add    %bl,0x53(%edi)
     afb:	43                   	inc    %ebx
     afc:	5f                   	pop    %edi
     afd:	50                   	push   %eax
     afe:	49                   	dec    %ecx
     aff:	49                   	dec    %ecx
     b00:	5f                   	pop    %edi
     b01:	58                   	pop    %eax
     b02:	54                   	push   %esp
     b03:	49                   	dec    %ecx
     b04:	00 5f 53             	add    %bl,0x53(%edi)
     b07:	43                   	inc    %ebx
     b08:	5f                   	pop    %edi
     b09:	58                   	pop    %eax
     b0a:	4f                   	dec    %edi
     b0b:	50                   	push   %eax
     b0c:	45                   	inc    %ebp
     b0d:	4e                   	dec    %esi
     b0e:	5f                   	pop    %edi
     b0f:	52                   	push   %edx
     b10:	45                   	inc    %ebp
     b11:	41                   	inc    %ecx
     b12:	4c                   	dec    %esp
     b13:	54                   	push   %esp
     b14:	49                   	dec    %ecx
     b15:	4d                   	dec    %ebp
     b16:	45                   	inc    %ebp
     b17:	5f                   	pop    %edi
     b18:	54                   	push   %esp
     b19:	48                   	dec    %eax
     b1a:	52                   	push   %edx
     b1b:	45                   	inc    %ebp
     b1c:	41                   	inc    %ecx
     b1d:	44                   	inc    %esp
     b1e:	53                   	push   %ebx
     b1f:	00 5f 53             	add    %bl,0x53(%edi)
     b22:	43                   	inc    %ebx
     b23:	5f                   	pop    %edi
     b24:	4c                   	dec    %esp
     b25:	4f                   	dec    %edi
     b26:	4e                   	dec    %esi
     b27:	47                   	inc    %edi
     b28:	5f                   	pop    %edi
     b29:	42                   	inc    %edx
     b2a:	49                   	dec    %ecx
     b2b:	54                   	push   %esp
     b2c:	00 5f 53             	add    %bl,0x53(%edi)
     b2f:	43                   	inc    %ebx
     b30:	5f                   	pop    %edi
     b31:	58                   	pop    %eax
     b32:	42                   	inc    %edx
     b33:	53                   	push   %ebx
     b34:	35 5f 49 4c 50       	xor    $0x504c495f,%eax
     b39:	33 32                	xor    (%edx),%esi
     b3b:	5f                   	pop    %edi
     b3c:	4f                   	dec    %edi
     b3d:	46                   	inc    %esi
     b3e:	46                   	inc    %esi
     b3f:	42                   	inc    %edx
     b40:	49                   	dec    %ecx
     b41:	47                   	inc    %edi
     b42:	00 5f 53             	add    %bl,0x53(%edi)
     b45:	43                   	inc    %ebx
     b46:	5f                   	pop    %edi
     b47:	55                   	push   %ebp
     b48:	43                   	inc    %ebx
     b49:	48                   	dec    %eax
     b4a:	41                   	inc    %ecx
     b4b:	52                   	push   %edx
     b4c:	5f                   	pop    %edi
     b4d:	4d                   	dec    %ebp
     b4e:	41                   	inc    %ecx
     b4f:	58                   	pop    %eax
     b50:	00 5f 53             	add    %bl,0x53(%edi)
     b53:	43                   	inc    %ebx
     b54:	5f                   	pop    %edi
     b55:	50                   	push   %eax
     b56:	49                   	dec    %ecx
     b57:	50                   	push   %eax
     b58:	45                   	inc    %ebp
     b59:	00 5f 53             	add    %bl,0x53(%edi)
     b5c:	43                   	inc    %ebx
     b5d:	5f                   	pop    %edi
     b5e:	54                   	push   %esp
     b5f:	59                   	pop    %ecx
     b60:	50                   	push   %eax
     b61:	45                   	inc    %ebp
     b62:	44                   	inc    %esp
     b63:	5f                   	pop    %edi
     b64:	4d                   	dec    %ebp
     b65:	45                   	inc    %ebp
     b66:	4d                   	dec    %ebp
     b67:	4f                   	dec    %edi
     b68:	52                   	push   %edx
     b69:	59                   	pop    %ecx
     b6a:	5f                   	pop    %edi
     b6b:	4f                   	dec    %edi
     b6c:	42                   	inc    %edx
     b6d:	4a                   	dec    %edx
     b6e:	45                   	inc    %ebp
     b6f:	43                   	inc    %ebx
     b70:	54                   	push   %esp
     b71:	53                   	push   %ebx
     b72:	00 5f 53             	add    %bl,0x53(%edi)
     b75:	43                   	inc    %ebx
     b76:	5f                   	pop    %edi
     b77:	4c                   	dec    %esp
     b78:	4f                   	dec    %edi
     b79:	47                   	inc    %edi
     b7a:	49                   	dec    %ecx
     b7b:	4e                   	dec    %esi
     b7c:	5f                   	pop    %edi
     b7d:	4e                   	dec    %esi
     b7e:	41                   	inc    %ecx
     b7f:	4d                   	dec    %ebp
     b80:	45                   	inc    %ebp
     b81:	5f                   	pop    %edi
     b82:	4d                   	dec    %ebp
     b83:	41                   	inc    %ecx
     b84:	58                   	pop    %eax
     b85:	00 5f 53             	add    %bl,0x53(%edi)
     b88:	43                   	inc    %ebx
     b89:	5f                   	pop    %edi
     b8a:	54                   	push   %esp
     b8b:	48                   	dec    %eax
     b8c:	52                   	push   %edx
     b8d:	45                   	inc    %ebp
     b8e:	41                   	inc    %ecx
     b8f:	44                   	inc    %esp
     b90:	5f                   	pop    %edi
     b91:	4b                   	dec    %ebx
     b92:	45                   	inc    %ebp
     b93:	59                   	pop    %ecx
     b94:	53                   	push   %ebx
     b95:	5f                   	pop    %edi
     b96:	4d                   	dec    %ebp
     b97:	41                   	inc    %ecx
     b98:	58                   	pop    %eax
     b99:	00 5f 53             	add    %bl,0x53(%edi)
     b9c:	43                   	inc    %ebx
     b9d:	5f                   	pop    %edi
     b9e:	41                   	inc    %ecx
     b9f:	44                   	inc    %esp
     ba0:	56                   	push   %esi
     ba1:	49                   	dec    %ecx
     ba2:	53                   	push   %ebx
     ba3:	4f                   	dec    %edi
     ba4:	52                   	push   %edx
     ba5:	59                   	pop    %ecx
     ba6:	5f                   	pop    %edi
     ba7:	49                   	dec    %ecx
     ba8:	4e                   	dec    %esi
     ba9:	46                   	inc    %esi
     baa:	4f                   	dec    %edi
     bab:	00 5f 53             	add    %bl,0x53(%edi)
     bae:	43                   	inc    %ebx
     baf:	5f                   	pop    %edi
     bb0:	43                   	inc    %ebx
     bb1:	4f                   	dec    %edi
     bb2:	4c                   	dec    %esp
     bb3:	4c                   	dec    %esp
     bb4:	5f                   	pop    %edi
     bb5:	57                   	push   %edi
     bb6:	45                   	inc    %ebp
     bb7:	49                   	dec    %ecx
     bb8:	47                   	inc    %edi
     bb9:	48                   	dec    %eax
     bba:	54                   	push   %esp
     bbb:	53                   	push   %ebx
     bbc:	5f                   	pop    %edi
     bbd:	4d                   	dec    %ebp
     bbe:	41                   	inc    %ecx
     bbf:	58                   	pop    %eax
     bc0:	00 5f 53             	add    %bl,0x53(%edi)
     bc3:	43                   	inc    %ebx
     bc4:	5f                   	pop    %edi
     bc5:	50                   	push   %eax
     bc6:	49                   	dec    %ecx
     bc7:	49                   	dec    %ecx
     bc8:	5f                   	pop    %edi
     bc9:	4f                   	dec    %edi
     bca:	53                   	push   %ebx
     bcb:	49                   	dec    %ecx
     bcc:	5f                   	pop    %edi
     bcd:	4d                   	dec    %ebp
     bce:	00 5f 53             	add    %bl,0x53(%edi)
     bd1:	43                   	inc    %ebx
     bd2:	5f                   	pop    %edi
     bd3:	32 5f 43             	xor    0x43(%edi),%bl
     bd6:	5f                   	pop    %edi
     bd7:	44                   	inc    %esp
     bd8:	45                   	inc    %ebp
     bd9:	56                   	push   %esi
     bda:	00 5f 53             	add    %bl,0x53(%edi)
     bdd:	43                   	inc    %ebx
     bde:	5f                   	pop    %edi
     bdf:	53                   	push   %ebx
     be0:	59                   	pop    %ecx
     be1:	53                   	push   %ebx
     be2:	54                   	push   %esp
     be3:	45                   	inc    %ebp
     be4:	4d                   	dec    %ebp
     be5:	5f                   	pop    %edi
     be6:	44                   	inc    %esp
     be7:	41                   	inc    %ecx
     be8:	54                   	push   %esp
     be9:	41                   	inc    %ecx
     bea:	42                   	inc    %edx
     beb:	41                   	inc    %ecx
     bec:	53                   	push   %ebx
     bed:	45                   	inc    %ebp
     bee:	5f                   	pop    %edi
     bef:	52                   	push   %edx
     bf0:	00 46 5f             	add    %al,0x5f(%esi)
     bf3:	4f                   	dec    %edi
     bf4:	57                   	push   %edi
     bf5:	4e                   	dec    %esi
     bf6:	45                   	inc    %ebp
     bf7:	52                   	push   %edx
     bf8:	5f                   	pop    %edi
     bf9:	50                   	push   %eax
     bfa:	49                   	dec    %ecx
     bfb:	44                   	inc    %esp
     bfc:	00 5f 53             	add    %bl,0x53(%edi)
     bff:	43                   	inc    %ebx
     c00:	5f                   	pop    %edi
     c01:	55                   	push   %ebp
     c02:	53                   	push   %ebx
     c03:	48                   	dec    %eax
     c04:	52                   	push   %edx
     c05:	54                   	push   %esp
     c06:	5f                   	pop    %edi
     c07:	4d                   	dec    %ebp
     c08:	41                   	inc    %ecx
     c09:	58                   	pop    %eax
     c0a:	00 5f 53             	add    %bl,0x53(%edi)
     c0d:	43                   	inc    %ebx
     c0e:	5f                   	pop    %edi
     c0f:	49                   	dec    %ecx
     c10:	50                   	push   %eax
     c11:	56                   	push   %esi
     c12:	36 00 5f 53          	add    %bl,%ss:0x53(%edi)
     c16:	43                   	inc    %ebx
     c17:	5f                   	pop    %edi
     c18:	48                   	dec    %eax
     c19:	4f                   	dec    %edi
     c1a:	53                   	push   %ebx
     c1b:	54                   	push   %esp
     c1c:	5f                   	pop    %edi
     c1d:	4e                   	dec    %esi
     c1e:	41                   	inc    %ecx
     c1f:	4d                   	dec    %ebp
     c20:	45                   	inc    %ebp
     c21:	5f                   	pop    %edi
     c22:	4d                   	dec    %ebp
     c23:	41                   	inc    %ecx
     c24:	58                   	pop    %eax
     c25:	00 5f 53             	add    %bl,0x53(%edi)
     c28:	43                   	inc    %ebx
     c29:	5f                   	pop    %edi
     c2a:	42                   	inc    %edx
     c2b:	43                   	inc    %ebx
     c2c:	5f                   	pop    %edi
     c2d:	53                   	push   %ebx
     c2e:	54                   	push   %esp
     c2f:	52                   	push   %edx
     c30:	49                   	dec    %ecx
     c31:	4e                   	dec    %esi
     c32:	47                   	inc    %edi
     c33:	5f                   	pop    %edi
     c34:	4d                   	dec    %ebp
     c35:	41                   	inc    %ecx
     c36:	58                   	pop    %eax
     c37:	00 5f 53             	add    %bl,0x53(%edi)
     c3a:	43                   	inc    %ebx
     c3b:	5f                   	pop    %edi
     c3c:	54                   	push   %esp
     c3d:	48                   	dec    %eax
     c3e:	52                   	push   %edx
     c3f:	45                   	inc    %ebp
     c40:	41                   	inc    %ecx
     c41:	44                   	inc    %esp
     c42:	5f                   	pop    %edi
     c43:	50                   	push   %eax
     c44:	52                   	push   %edx
     c45:	49                   	dec    %ecx
     c46:	4f                   	dec    %edi
     c47:	52                   	push   %edx
     c48:	49                   	dec    %ecx
     c49:	54                   	push   %esp
     c4a:	59                   	pop    %ecx
     c4b:	5f                   	pop    %edi
     c4c:	53                   	push   %ebx
     c4d:	43                   	inc    %ebx
     c4e:	48                   	dec    %eax
     c4f:	45                   	inc    %ebp
     c50:	44                   	inc    %esp
     c51:	55                   	push   %ebp
     c52:	4c                   	dec    %esp
     c53:	49                   	dec    %ecx
     c54:	4e                   	dec    %esi
     c55:	47                   	inc    %edi
     c56:	00 47 4e             	add    %al,0x4e(%edi)
     c59:	55                   	push   %ebp
     c5a:	20 43 2b             	and    %al,0x2b(%ebx)
     c5d:	2b 20                	sub    (%eax),%esp
     c5f:	35 2e 34 2e 30       	xor    $0x302e342e,%eax
     c64:	20 32                	and    %dh,(%edx)
     c66:	30 31                	xor    %dh,(%ecx)
     c68:	36 30 36             	xor    %dh,%ss:(%esi)
     c6b:	30 39                	xor    %bh,(%ecx)
     c6d:	20 2d 6d 33 32 20    	and    %ch,0x2032336d
     c73:	2d 6d 74 75 6e       	sub    $0x6e75746d,%eax
     c78:	65 3d 67 65 6e 65    	gs cmp $0x656e6567,%eax
     c7e:	72 69                	jb     ce9 <__FRAME_END__+0x6a5>
     c80:	63 20                	arpl   %sp,(%eax)
     c82:	2d 6d 61 72 63       	sub    $0x6372616d,%eax
     c87:	68 3d 69 36 38       	push   $0x3836693d
     c8c:	36 20 2d 67 20 2d 4f 	and    %ch,%ss:0x4f2d2067
     c93:	30 20                	xor    %ah,(%eax)
     c95:	2d 66 73 74 61       	sub    $0x61747366,%eax
     c9a:	63 6b 2d             	arpl   %bp,0x2d(%ebx)
     c9d:	70 72                	jo     d11 <__FRAME_END__+0x6cd>
     c9f:	6f                   	outsl  %ds:(%esi),(%dx)
     ca0:	74 65                	je     d07 <__FRAME_END__+0x6c3>
     ca2:	63 74 6f 72          	arpl   %si,0x72(%edi,%ebp,2)
     ca6:	2d 73 74 72 6f       	sub    $0x6f727473,%eax
     cab:	6e                   	outsb  %ds:(%esi),(%dx)
     cac:	67 00 5f 53          	add    %bl,0x53(%bx)
     cb0:	43                   	inc    %ebx
     cb1:	5f                   	pop    %edi
     cb2:	50                   	push   %eax
     cb3:	4f                   	dec    %edi
     cb4:	4c                   	dec    %esp
     cb5:	4c                   	dec    %esp
     cb6:	00 5f 53             	add    %bl,0x53(%edi)
     cb9:	43                   	inc    %ebx
     cba:	5f                   	pop    %edi
     cbb:	32 5f 53             	xor    0x53(%edi),%bl
     cbe:	57                   	push   %edi
     cbf:	5f                   	pop    %edi
     cc0:	44                   	inc    %esp
     cc1:	45                   	inc    %ebp
     cc2:	56                   	push   %esi
     cc3:	00 5f 53             	add    %bl,0x53(%edi)
     cc6:	43                   	inc    %ebx
     cc7:	5f                   	pop    %edi
     cc8:	52                   	push   %edx
     cc9:	45                   	inc    %ebp
     cca:	41                   	inc    %ecx
     ccb:	4c                   	dec    %esp
     ccc:	54                   	push   %esp
     ccd:	49                   	dec    %ecx
     cce:	4d                   	dec    %ebp
     ccf:	45                   	inc    %ebp
     cd0:	5f                   	pop    %edi
     cd1:	53                   	push   %ebx
     cd2:	49                   	dec    %ecx
     cd3:	47                   	inc    %edi
     cd4:	4e                   	dec    %esi
     cd5:	41                   	inc    %ecx
     cd6:	4c                   	dec    %esp
     cd7:	53                   	push   %ebx
     cd8:	00 5f 53             	add    %bl,0x53(%edi)
     cdb:	43                   	inc    %ebx
     cdc:	5f                   	pop    %edi
     cdd:	58                   	pop    %eax
     cde:	42                   	inc    %edx
     cdf:	53                   	push   %ebx
     ce0:	35 5f 4c 50 42       	xor    $0x42504c5f,%eax
     ce5:	49                   	dec    %ecx
     ce6:	47                   	inc    %edi
     ce7:	5f                   	pop    %edi
     ce8:	4f                   	dec    %edi
     ce9:	46                   	inc    %esi
     cea:	46                   	inc    %esi
     ceb:	42                   	inc    %edx
     cec:	49                   	dec    %ecx
     ced:	47                   	inc    %edi
     cee:	00 5f 53             	add    %bl,0x53(%edi)
     cf1:	43                   	inc    %ebx
     cf2:	5f                   	pop    %edi
     cf3:	32 5f 50             	xor    0x50(%edi),%bl
     cf6:	42                   	inc    %edx
     cf7:	53                   	push   %ebx
     cf8:	5f                   	pop    %edi
     cf9:	41                   	inc    %ecx
     cfa:	43                   	inc    %ebx
     cfb:	43                   	inc    %ebx
     cfc:	4f                   	dec    %edi
     cfd:	55                   	push   %ebp
     cfe:	4e                   	dec    %esi
     cff:	54                   	push   %esp
     d00:	49                   	dec    %ecx
     d01:	4e                   	dec    %esi
     d02:	47                   	inc    %edi
     d03:	00 5f 53             	add    %bl,0x53(%edi)
     d06:	43                   	inc    %ebx
     d07:	5f                   	pop    %edi
     d08:	54                   	push   %esp
     d09:	48                   	dec    %eax
     d0a:	52                   	push   %edx
     d0b:	45                   	inc    %ebp
     d0c:	41                   	inc    %ecx
     d0d:	44                   	inc    %esp
     d0e:	5f                   	pop    %edi
     d0f:	44                   	inc    %esp
     d10:	45                   	inc    %ebp
     d11:	53                   	push   %ebx
     d12:	54                   	push   %esp
     d13:	52                   	push   %edx
     d14:	55                   	push   %ebp
     d15:	43                   	inc    %ebx
     d16:	54                   	push   %esp
     d17:	4f                   	dec    %edi
     d18:	52                   	push   %edx
     d19:	5f                   	pop    %edi
     d1a:	49                   	dec    %ecx
     d1b:	54                   	push   %esp
     d1c:	45                   	inc    %ebp
     d1d:	52                   	push   %edx
     d1e:	41                   	inc    %ecx
     d1f:	54                   	push   %esp
     d20:	49                   	dec    %ecx
     d21:	4f                   	dec    %edi
     d22:	4e                   	dec    %esi
     d23:	53                   	push   %ebx
     d24:	00 5f 53             	add    %bl,0x53(%edi)
     d27:	43                   	inc    %ebx
     d28:	5f                   	pop    %edi
     d29:	54                   	push   %esp
     d2a:	52                   	push   %edx
     d2b:	41                   	inc    %ecx
     d2c:	43                   	inc    %ebx
     d2d:	45                   	inc    %ebp
     d2e:	5f                   	pop    %edi
     d2f:	4c                   	dec    %esp
     d30:	4f                   	dec    %edi
     d31:	47                   	inc    %edi
     d32:	00 6c 6f 6e          	add    %ch,0x6e(%edi,%ebp,2)
     d36:	67 20 64 6f          	and    %ah,0x6f(%si)
     d3a:	75 62                	jne    d9e <__FRAME_END__+0x75a>
     d3c:	6c                   	insb   (%dx),%es:(%edi)
     d3d:	65 00 5f 53          	add    %bl,%gs:0x53(%edi)
     d41:	43                   	inc    %ebx
     d42:	5f                   	pop    %edi
     d43:	4d                   	dec    %ebp
     d44:	45                   	inc    %ebp
     d45:	4d                   	dec    %ebp
     d46:	4c                   	dec    %esp
     d47:	4f                   	dec    %edi
     d48:	43                   	inc    %ebx
     d49:	4b                   	dec    %ebx
     d4a:	00 5f 53             	add    %bl,0x53(%edi)
     d4d:	43                   	inc    %ebx
     d4e:	5f                   	pop    %edi
     d4f:	50                   	push   %eax
     d50:	49                   	dec    %ecx
     d51:	49                   	dec    %ecx
     d52:	5f                   	pop    %edi
     d53:	4f                   	dec    %edi
     d54:	53                   	push   %ebx
     d55:	49                   	dec    %ecx
     d56:	00 5f 53             	add    %bl,0x53(%edi)
     d59:	43                   	inc    %ebx
     d5a:	5f                   	pop    %edi
     d5b:	44                   	inc    %esp
     d5c:	45                   	inc    %ebp
     d5d:	4c                   	dec    %esp
     d5e:	41                   	inc    %ecx
     d5f:	59                   	pop    %ecx
     d60:	54                   	push   %esp
     d61:	49                   	dec    %ecx
     d62:	4d                   	dec    %ebp
     d63:	45                   	inc    %ebp
     d64:	52                   	push   %edx
     d65:	5f                   	pop    %edi
     d66:	4d                   	dec    %ebp
     d67:	41                   	inc    %ecx
     d68:	58                   	pop    %eax
     d69:	00 5f 53             	add    %bl,0x53(%edi)
     d6c:	43                   	inc    %ebx
     d6d:	5f                   	pop    %edi
     d6e:	32 5f 46             	xor    0x46(%edi),%bl
     d71:	4f                   	dec    %edi
     d72:	52                   	push   %edx
     d73:	54                   	push   %esp
     d74:	5f                   	pop    %edi
     d75:	52                   	push   %edx
     d76:	55                   	push   %ebp
     d77:	4e                   	dec    %esi
     d78:	00 5f 53             	add    %bl,0x53(%edi)
     d7b:	43                   	inc    %ebx
     d7c:	5f                   	pop    %edi
     d7d:	56                   	push   %esi
     d7e:	37                   	aaa    
     d7f:	5f                   	pop    %edi
     d80:	4c                   	dec    %esp
     d81:	50                   	push   %eax
     d82:	36 34 5f             	ss xor $0x5f,%al
     d85:	4f                   	dec    %edi
     d86:	46                   	inc    %esi
     d87:	46                   	inc    %esi
     d88:	36 34 00             	ss xor $0x0,%al
     d8b:	5f                   	pop    %edi
     d8c:	53                   	push   %ebx
     d8d:	43                   	inc    %ebx
     d8e:	5f                   	pop    %edi
     d8f:	4e                   	dec    %esi
     d90:	50                   	push   %eax
     d91:	52                   	push   %edx
     d92:	4f                   	dec    %edi
     d93:	43                   	inc    %ebx
     d94:	45                   	inc    %ebp
     d95:	53                   	push   %ebx
     d96:	53                   	push   %ebx
     d97:	4f                   	dec    %edi
     d98:	52                   	push   %edx
     d99:	53                   	push   %ebx
     d9a:	5f                   	pop    %edi
     d9b:	43                   	inc    %ebx
     d9c:	4f                   	dec    %edi
     d9d:	4e                   	dec    %esi
     d9e:	46                   	inc    %esi
     d9f:	00 5f 53             	add    %bl,0x53(%edi)
     da2:	43                   	inc    %ebx
     da3:	5f                   	pop    %edi
     da4:	53                   	push   %ebx
     da5:	48                   	dec    %eax
     da6:	52                   	push   %edx
     da7:	54                   	push   %esp
     da8:	5f                   	pop    %edi
     da9:	4d                   	dec    %ebp
     daa:	41                   	inc    %ecx
     dab:	58                   	pop    %eax
     dac:	00 5f 53             	add    %bl,0x53(%edi)
     daf:	43                   	inc    %ebx
     db0:	5f                   	pop    %edi
     db1:	41                   	inc    %ecx
     db2:	49                   	dec    %ecx
     db3:	4f                   	dec    %edi
     db4:	5f                   	pop    %edi
     db5:	4d                   	dec    %ebp
     db6:	41                   	inc    %ecx
     db7:	58                   	pop    %eax
     db8:	00 5f 53             	add    %bl,0x53(%edi)
     dbb:	43                   	inc    %ebx
     dbc:	5f                   	pop    %edi
     dbd:	42                   	inc    %edx
     dbe:	41                   	inc    %ecx
     dbf:	52                   	push   %edx
     dc0:	52                   	push   %edx
     dc1:	49                   	dec    %ecx
     dc2:	45                   	inc    %ebp
     dc3:	52                   	push   %edx
     dc4:	53                   	push   %ebx
     dc5:	00 5f 53             	add    %bl,0x53(%edi)
     dc8:	43                   	inc    %ebx
     dc9:	5f                   	pop    %edi
     dca:	52                   	push   %edx
     dcb:	45                   	inc    %ebp
     dcc:	47                   	inc    %edi
     dcd:	45                   	inc    %ebp
     dce:	58                   	pop    %eax
     dcf:	5f                   	pop    %edi
     dd0:	56                   	push   %esi
     dd1:	45                   	inc    %ebp
     dd2:	52                   	push   %edx
     dd3:	53                   	push   %ebx
     dd4:	49                   	dec    %ecx
     dd5:	4f                   	dec    %edi
     dd6:	4e                   	dec    %esi
     dd7:	00 5f 53             	add    %bl,0x53(%edi)
     dda:	43                   	inc    %ebx
     ddb:	5f                   	pop    %edi
     ddc:	4c                   	dec    %esp
     ddd:	45                   	inc    %ebp
     dde:	56                   	push   %esi
     ddf:	45                   	inc    %ebp
     de0:	4c                   	dec    %esp
     de1:	32 5f 43             	xor    0x43(%edi),%bl
     de4:	41                   	inc    %ecx
     de5:	43                   	inc    %ebx
     de6:	48                   	dec    %eax
     de7:	45                   	inc    %ebp
     de8:	5f                   	pop    %edi
     de9:	4c                   	dec    %esp
     dea:	49                   	dec    %ecx
     deb:	4e                   	dec    %esi
     dec:	45                   	inc    %ebp
     ded:	53                   	push   %ebx
     dee:	49                   	dec    %ecx
     def:	5a                   	pop    %edx
     df0:	45                   	inc    %ebp
     df1:	00 50 54             	add    %dl,0x54(%eax)
     df4:	48                   	dec    %eax
     df5:	52                   	push   %edx
     df6:	45                   	inc    %ebp
     df7:	41                   	inc    %ecx
     df8:	44                   	inc    %esp
     df9:	5f                   	pop    %edi
     dfa:	52                   	push   %edx
     dfb:	57                   	push   %edi
     dfc:	4c                   	dec    %esp
     dfd:	4f                   	dec    %edi
     dfe:	43                   	inc    %ebx
     dff:	4b                   	dec    %ebx
     e00:	5f                   	pop    %edi
     e01:	44                   	inc    %esp
     e02:	45                   	inc    %ebp
     e03:	46                   	inc    %esi
     e04:	41                   	inc    %ecx
     e05:	55                   	push   %ebp
     e06:	4c                   	dec    %esp
     e07:	54                   	push   %esp
     e08:	5f                   	pop    %edi
     e09:	4e                   	dec    %esi
     e0a:	50                   	push   %eax
     e0b:	00 5f 53             	add    %bl,0x53(%edi)
     e0e:	43                   	inc    %ebx
     e0f:	5f                   	pop    %edi
     e10:	44                   	inc    %esp
     e11:	45                   	inc    %ebp
     e12:	56                   	push   %esi
     e13:	49                   	dec    %ecx
     e14:	43                   	inc    %ebx
     e15:	45                   	inc    %ebp
     e16:	5f                   	pop    %edi
     e17:	53                   	push   %ebx
     e18:	50                   	push   %eax
     e19:	45                   	inc    %ebp
     e1a:	43                   	inc    %ebx
     e1b:	49                   	dec    %ecx
     e1c:	46                   	inc    %esi
     e1d:	49                   	dec    %ecx
     e1e:	43                   	inc    %ebx
     e1f:	00 5f 53             	add    %bl,0x53(%edi)
     e22:	43                   	inc    %ebx
     e23:	5f                   	pop    %edi
     e24:	53                   	push   %ebx
     e25:	48                   	dec    %eax
     e26:	41                   	inc    %ecx
     e27:	52                   	push   %edx
     e28:	45                   	inc    %ebp
     e29:	44                   	inc    %esp
     e2a:	5f                   	pop    %edi
     e2b:	4d                   	dec    %ebp
     e2c:	45                   	inc    %ebp
     e2d:	4d                   	dec    %ebp
     e2e:	4f                   	dec    %edi
     e2f:	52                   	push   %edx
     e30:	59                   	pop    %ecx
     e31:	5f                   	pop    %edi
     e32:	4f                   	dec    %edi
     e33:	42                   	inc    %edx
     e34:	4a                   	dec    %edx
     e35:	45                   	inc    %ebp
     e36:	43                   	inc    %ebx
     e37:	54                   	push   %esp
     e38:	53                   	push   %ebx
     e39:	00 46 5f             	add    %al,0x5f(%esi)
     e3c:	4f                   	dec    %edi
     e3d:	57                   	push   %edi
     e3e:	4e                   	dec    %esi
     e3f:	45                   	inc    %ebp
     e40:	52                   	push   %edx
     e41:	5f                   	pop    %edi
     e42:	50                   	push   %eax
     e43:	47                   	inc    %edi
     e44:	52                   	push   %edx
     e45:	50                   	push   %eax
     e46:	00 5f 53             	add    %bl,0x53(%edi)
     e49:	43                   	inc    %ebx
     e4a:	5f                   	pop    %edi
     e4b:	58                   	pop    %eax
     e4c:	42                   	inc    %edx
     e4d:	53                   	push   %ebx
     e4e:	35 5f 4c 50 36       	xor    $0x36504c5f,%eax
     e53:	34 5f                	xor    $0x5f,%al
     e55:	4f                   	dec    %edi
     e56:	46                   	inc    %esi
     e57:	46                   	inc    %esi
     e58:	36 34 00             	ss xor $0x0,%al
     e5b:	5f                   	pop    %edi
     e5c:	53                   	push   %ebx
     e5d:	43                   	inc    %ebx
     e5e:	5f                   	pop    %edi
     e5f:	56                   	push   %esi
     e60:	37                   	aaa    
     e61:	5f                   	pop    %edi
     e62:	4c                   	dec    %esp
     e63:	50                   	push   %eax
     e64:	42                   	inc    %edx
     e65:	49                   	dec    %ecx
     e66:	47                   	inc    %edi
     e67:	5f                   	pop    %edi
     e68:	4f                   	dec    %edi
     e69:	46                   	inc    %esi
     e6a:	46                   	inc    %esi
     e6b:	42                   	inc    %edx
     e6c:	49                   	dec    %ecx
     e6d:	47                   	inc    %edi
     e6e:	00 5f 53             	add    %bl,0x53(%edi)
     e71:	43                   	inc    %ebx
     e72:	5f                   	pop    %edi
     e73:	4e                   	dec    %esi
     e74:	4c                   	dec    %esp
     e75:	5f                   	pop    %edi
     e76:	41                   	inc    %ecx
     e77:	52                   	push   %edx
     e78:	47                   	inc    %edi
     e79:	4d                   	dec    %ebp
     e7a:	41                   	inc    %ecx
     e7b:	58                   	pop    %eax
     e7c:	00 5f 53             	add    %bl,0x53(%edi)
     e7f:	43                   	inc    %ebx
     e80:	5f                   	pop    %edi
     e81:	53                   	push   %ebx
     e82:	49                   	dec    %ecx
     e83:	4e                   	dec    %esi
     e84:	47                   	inc    %edi
     e85:	4c                   	dec    %esp
     e86:	45                   	inc    %ebp
     e87:	5f                   	pop    %edi
     e88:	50                   	push   %eax
     e89:	52                   	push   %edx
     e8a:	4f                   	dec    %edi
     e8b:	43                   	inc    %ebx
     e8c:	45                   	inc    %ebp
     e8d:	53                   	push   %ebx
     e8e:	53                   	push   %ebx
     e8f:	00 5f 53             	add    %bl,0x53(%edi)
     e92:	43                   	inc    %ebx
     e93:	5f                   	pop    %edi
     e94:	41                   	inc    %ecx
     e95:	56                   	push   %esi
     e96:	50                   	push   %eax
     e97:	48                   	dec    %eax
     e98:	59                   	pop    %ecx
     e99:	53                   	push   %ebx
     e9a:	5f                   	pop    %edi
     e9b:	50                   	push   %eax
     e9c:	41                   	inc    %ecx
     e9d:	47                   	inc    %edi
     e9e:	45                   	inc    %ebp
     e9f:	53                   	push   %ebx
     ea0:	00 5f 53             	add    %bl,0x53(%edi)
     ea3:	43                   	inc    %ebx
     ea4:	5f                   	pop    %edi
     ea5:	58                   	pop    %eax
     ea6:	4f                   	dec    %edi
     ea7:	50                   	push   %eax
     ea8:	45                   	inc    %ebp
     ea9:	4e                   	dec    %esi
     eaa:	5f                   	pop    %edi
     eab:	53                   	push   %ebx
     eac:	48                   	dec    %eax
     ead:	4d                   	dec    %ebp
     eae:	00 5f 53             	add    %bl,0x53(%edi)
     eb1:	43                   	inc    %ebx
     eb2:	5f                   	pop    %edi
     eb3:	54                   	push   %esp
     eb4:	48                   	dec    %eax
     eb5:	52                   	push   %edx
     eb6:	45                   	inc    %ebp
     eb7:	41                   	inc    %ecx
     eb8:	44                   	inc    %esp
     eb9:	5f                   	pop    %edi
     eba:	53                   	push   %ebx
     ebb:	50                   	push   %eax
     ebc:	4f                   	dec    %edi
     ebd:	52                   	push   %edx
     ebe:	41                   	inc    %ecx
     ebf:	44                   	inc    %esp
     ec0:	49                   	dec    %ecx
     ec1:	43                   	inc    %ebx
     ec2:	5f                   	pop    %edi
     ec3:	53                   	push   %ebx
     ec4:	45                   	inc    %ebp
     ec5:	52                   	push   %edx
     ec6:	56                   	push   %esi
     ec7:	45                   	inc    %ebp
     ec8:	52                   	push   %edx
     ec9:	00 50 54             	add    %dl,0x54(%eax)
     ecc:	48                   	dec    %eax
     ecd:	52                   	push   %edx
     ece:	45                   	inc    %ebp
     ecf:	41                   	inc    %ecx
     ed0:	44                   	inc    %esp
     ed1:	5f                   	pop    %edi
     ed2:	4d                   	dec    %ebp
     ed3:	55                   	push   %ebp
     ed4:	54                   	push   %esp
     ed5:	45                   	inc    %ebp
     ed6:	58                   	pop    %eax
     ed7:	5f                   	pop    %edi
     ed8:	52                   	push   %edx
     ed9:	4f                   	dec    %edi
     eda:	42                   	inc    %edx
     edb:	55                   	push   %ebp
     edc:	53                   	push   %ebx
     edd:	54                   	push   %esp
     ede:	00 5f 53             	add    %bl,0x53(%edi)
     ee1:	43                   	inc    %ebx
     ee2:	5f                   	pop    %edi
     ee3:	53                   	push   %ebx
     ee4:	53                   	push   %ebx
     ee5:	5f                   	pop    %edi
     ee6:	52                   	push   %edx
     ee7:	45                   	inc    %ebp
     ee8:	50                   	push   %eax
     ee9:	4c                   	dec    %esp
     eea:	5f                   	pop    %edi
     eeb:	4d                   	dec    %ebp
     eec:	41                   	inc    %ecx
     eed:	58                   	pop    %eax
     eee:	00 5f 53             	add    %bl,0x53(%edi)
     ef1:	43                   	inc    %ebx
     ef2:	5f                   	pop    %edi
     ef3:	4e                   	dec    %esi
     ef4:	4c                   	dec    %esp
     ef5:	5f                   	pop    %edi
     ef6:	4e                   	dec    %esi
     ef7:	4d                   	dec    %ebp
     ef8:	41                   	inc    %ecx
     ef9:	58                   	pop    %eax
     efa:	00 50 54             	add    %dl,0x54(%eax)
     efd:	48                   	dec    %eax
     efe:	52                   	push   %edx
     eff:	45                   	inc    %ebp
     f00:	41                   	inc    %ecx
     f01:	44                   	inc    %esp
     f02:	5f                   	pop    %edi
     f03:	52                   	push   %edx
     f04:	57                   	push   %edi
     f05:	4c                   	dec    %esp
     f06:	4f                   	dec    %edi
     f07:	43                   	inc    %ebx
     f08:	4b                   	dec    %ebx
     f09:	5f                   	pop    %edi
     f0a:	50                   	push   %eax
     f0b:	52                   	push   %edx
     f0c:	45                   	inc    %ebp
     f0d:	46                   	inc    %esi
     f0e:	45                   	inc    %ebp
     f0f:	52                   	push   %edx
     f10:	5f                   	pop    %edi
     f11:	57                   	push   %edi
     f12:	52                   	push   %edx
     f13:	49                   	dec    %ecx
     f14:	54                   	push   %esp
     f15:	45                   	inc    %ebp
     f16:	52                   	push   %edx
     f17:	5f                   	pop    %edi
     f18:	4e                   	dec    %esi
     f19:	4f                   	dec    %edi
     f1a:	4e                   	dec    %esi
     f1b:	52                   	push   %edx
     f1c:	45                   	inc    %ebp
     f1d:	43                   	inc    %ebx
     f1e:	55                   	push   %ebp
     f1f:	52                   	push   %edx
     f20:	53                   	push   %ebx
     f21:	49                   	dec    %ecx
     f22:	56                   	push   %esi
     f23:	45                   	inc    %ebp
     f24:	5f                   	pop    %edi
     f25:	4e                   	dec    %esi
     f26:	50                   	push   %eax
     f27:	00 5f 53             	add    %bl,0x53(%edi)
     f2a:	43                   	inc    %ebx
     f2b:	5f                   	pop    %edi
     f2c:	32 5f 50             	xor    0x50(%edi),%bl
     f2f:	42                   	inc    %edx
     f30:	53                   	push   %ebx
     f31:	5f                   	pop    %edi
     f32:	4d                   	dec    %ebp
     f33:	45                   	inc    %ebp
     f34:	53                   	push   %ebx
     f35:	53                   	push   %ebx
     f36:	41                   	inc    %ecx
     f37:	47                   	inc    %edi
     f38:	45                   	inc    %ebp
     f39:	00 5f 53             	add    %bl,0x53(%edi)
     f3c:	43                   	inc    %ebx
     f3d:	5f                   	pop    %edi
     f3e:	53                   	push   %ebx
     f3f:	45                   	inc    %ebp
     f40:	4d                   	dec    %ebp
     f41:	5f                   	pop    %edi
     f42:	4e                   	dec    %esi
     f43:	53                   	push   %ebx
     f44:	45                   	inc    %ebp
     f45:	4d                   	dec    %ebp
     f46:	53                   	push   %ebx
     f47:	5f                   	pop    %edi
     f48:	4d                   	dec    %ebp
     f49:	41                   	inc    %ecx
     f4a:	58                   	pop    %eax
     f4b:	00 5f 53             	add    %bl,0x53(%edi)
     f4e:	43                   	inc    %ebx
     f4f:	5f                   	pop    %edi
     f50:	54                   	push   %esp
     f51:	5f                   	pop    %edi
     f52:	49                   	dec    %ecx
     f53:	4f                   	dec    %edi
     f54:	56                   	push   %esi
     f55:	5f                   	pop    %edi
     f56:	4d                   	dec    %ebp
     f57:	41                   	inc    %ecx
     f58:	58                   	pop    %eax
     f59:	00 5f 53             	add    %bl,0x53(%edi)
     f5c:	43                   	inc    %ebx
     f5d:	5f                   	pop    %edi
     f5e:	50                   	push   %eax
     f5f:	52                   	push   %edx
     f60:	49                   	dec    %ecx
     f61:	4f                   	dec    %edi
     f62:	52                   	push   %edx
     f63:	49                   	dec    %ecx
     f64:	54                   	push   %esp
     f65:	49                   	dec    %ecx
     f66:	5a                   	pop    %edx
     f67:	45                   	inc    %ebp
     f68:	44                   	inc    %esp
     f69:	5f                   	pop    %edi
     f6a:	49                   	dec    %ecx
     f6b:	4f                   	dec    %edi
     f6c:	00 5f 53             	add    %bl,0x53(%edi)
     f6f:	43                   	inc    %ebx
     f70:	5f                   	pop    %edi
     f71:	56                   	push   %esi
     f72:	36 5f                	ss pop %edi
     f74:	49                   	dec    %ecx
     f75:	4c                   	dec    %esp
     f76:	50                   	push   %eax
     f77:	33 32                	xor    (%edx),%esi
     f79:	5f                   	pop    %edi
     f7a:	4f                   	dec    %edi
     f7b:	46                   	inc    %esi
     f7c:	46                   	inc    %esi
     f7d:	33 32                	xor    (%edx),%esi
     f7f:	00 46 5f             	add    %al,0x5f(%esi)
     f82:	4f                   	dec    %edi
     f83:	57                   	push   %edi
     f84:	4e                   	dec    %esi
     f85:	45                   	inc    %ebp
     f86:	52                   	push   %edx
     f87:	5f                   	pop    %edi
     f88:	47                   	inc    %edi
     f89:	49                   	dec    %ecx
     f8a:	44                   	inc    %esp
     f8b:	00 5f 53             	add    %bl,0x53(%edi)
     f8e:	43                   	inc    %ebx
     f8f:	5f                   	pop    %edi
     f90:	53                   	push   %ebx
     f91:	54                   	push   %esp
     f92:	52                   	push   %edx
     f93:	45                   	inc    %ebp
     f94:	41                   	inc    %ecx
     f95:	4d                   	dec    %ebp
     f96:	5f                   	pop    %edi
     f97:	4d                   	dec    %ebp
     f98:	41                   	inc    %ecx
     f99:	58                   	pop    %eax
     f9a:	00 5f 53             	add    %bl,0x53(%edi)
     f9d:	43                   	inc    %ebx
     f9e:	5f                   	pop    %edi
     f9f:	54                   	push   %esp
     fa0:	5a                   	pop    %edx
     fa1:	4e                   	dec    %esi
     fa2:	41                   	inc    %ecx
     fa3:	4d                   	dec    %ebp
     fa4:	45                   	inc    %ebp
     fa5:	5f                   	pop    %edi
     fa6:	4d                   	dec    %ebp
     fa7:	41                   	inc    %ecx
     fa8:	58                   	pop    %eax
     fa9:	00 5f 53             	add    %bl,0x53(%edi)
     fac:	43                   	inc    %ebx
     fad:	5f                   	pop    %edi
     fae:	32 5f 50             	xor    0x50(%edi),%bl
     fb1:	42                   	inc    %edx
     fb2:	53                   	push   %ebx
     fb3:	5f                   	pop    %edi
     fb4:	43                   	inc    %ebx
     fb5:	48                   	dec    %eax
     fb6:	45                   	inc    %ebp
     fb7:	43                   	inc    %ebx
     fb8:	4b                   	dec    %ebx
     fb9:	50                   	push   %eax
     fba:	4f                   	dec    %edi
     fbb:	49                   	dec    %ecx
     fbc:	4e                   	dec    %esi
     fbd:	54                   	push   %esp
     fbe:	00 5f 53             	add    %bl,0x53(%edi)
     fc1:	43                   	inc    %ebx
     fc2:	5f                   	pop    %edi
     fc3:	53                   	push   %ebx
     fc4:	50                   	push   %eax
     fc5:	41                   	inc    %ecx
     fc6:	57                   	push   %edi
     fc7:	4e                   	dec    %esi
     fc8:	00 5f 53             	add    %bl,0x53(%edi)
     fcb:	43                   	inc    %ebx
     fcc:	5f                   	pop    %edi
     fcd:	4d                   	dec    %ebp
     fce:	45                   	inc    %ebp
     fcf:	4d                   	dec    %ebp
     fd0:	4c                   	dec    %esp
     fd1:	4f                   	dec    %edi
     fd2:	43                   	inc    %ebx
     fd3:	4b                   	dec    %ebx
     fd4:	5f                   	pop    %edi
     fd5:	52                   	push   %edx
     fd6:	41                   	inc    %ecx
     fd7:	4e                   	dec    %esi
     fd8:	47                   	inc    %edi
     fd9:	45                   	inc    %ebp
     fda:	00 5f 53             	add    %bl,0x53(%edi)
     fdd:	43                   	inc    %ebx
     fde:	5f                   	pop    %edi
     fdf:	42                   	inc    %edx
     fe0:	43                   	inc    %ebx
     fe1:	5f                   	pop    %edi
     fe2:	53                   	push   %ebx
     fe3:	43                   	inc    %ebx
     fe4:	41                   	inc    %ecx
     fe5:	4c                   	dec    %esp
     fe6:	45                   	inc    %ebp
     fe7:	5f                   	pop    %edi
     fe8:	4d                   	dec    %ebp
     fe9:	41                   	inc    %ecx
     fea:	58                   	pop    %eax
     feb:	00 5f 53             	add    %bl,0x53(%edi)
     fee:	43                   	inc    %ebx
     fef:	5f                   	pop    %edi
     ff0:	54                   	push   %esp
     ff1:	52                   	push   %edx
     ff2:	41                   	inc    %ecx
     ff3:	43                   	inc    %ebx
     ff4:	45                   	inc    %ebp
     ff5:	5f                   	pop    %edi
     ff6:	53                   	push   %ebx
     ff7:	59                   	pop    %ecx
     ff8:	53                   	push   %ebx
     ff9:	5f                   	pop    %edi
     ffa:	4d                   	dec    %ebp
     ffb:	41                   	inc    %ecx
     ffc:	58                   	pop    %eax
     ffd:	00 5f 53             	add    %bl,0x53(%edi)
    1000:	43                   	inc    %ebx
    1001:	5f                   	pop    %edi
    1002:	53                   	push   %ebx
    1003:	59                   	pop    %ecx
    1004:	4d                   	dec    %ebp
    1005:	4c                   	dec    %esp
    1006:	4f                   	dec    %edi
    1007:	4f                   	dec    %edi
    1008:	50                   	push   %eax
    1009:	5f                   	pop    %edi
    100a:	4d                   	dec    %ebp
    100b:	41                   	inc    %ecx
    100c:	58                   	pop    %eax
    100d:	00 5f 53             	add    %bl,0x53(%edi)
    1010:	43                   	inc    %ebx
    1011:	5f                   	pop    %edi
    1012:	32 5f 43             	xor    0x43(%edi),%bl
    1015:	48                   	dec    %eax
    1016:	41                   	inc    %ecx
    1017:	52                   	push   %edx
    1018:	5f                   	pop    %edi
    1019:	54                   	push   %esp
    101a:	45                   	inc    %ebp
    101b:	52                   	push   %edx
    101c:	4d                   	dec    %ebp
    101d:	00 5f 53             	add    %bl,0x53(%edi)
    1020:	43                   	inc    %ebx
    1021:	5f                   	pop    %edi
    1022:	53                   	push   %ebx
    1023:	48                   	dec    %eax
    1024:	45                   	inc    %ebp
    1025:	4c                   	dec    %esp
    1026:	4c                   	dec    %esp
    1027:	00 5f 53             	add    %bl,0x53(%edi)
    102a:	43                   	inc    %ebx
    102b:	5f                   	pop    %edi
    102c:	46                   	inc    %esi
    102d:	44                   	inc    %esp
    102e:	5f                   	pop    %edi
    102f:	4d                   	dec    %ebp
    1030:	47                   	inc    %edi
    1031:	4d                   	dec    %ebp
    1032:	54                   	push   %esp
    1033:	00 50 54             	add    %dl,0x54(%eax)
    1036:	48                   	dec    %eax
    1037:	52                   	push   %edx
    1038:	45                   	inc    %ebp
    1039:	41                   	inc    %ecx
    103a:	44                   	inc    %esp
    103b:	5f                   	pop    %edi
    103c:	4d                   	dec    %ebp
    103d:	55                   	push   %ebp
    103e:	54                   	push   %esp
    103f:	45                   	inc    %ebp
    1040:	58                   	pop    %eax
    1041:	5f                   	pop    %edi
    1042:	45                   	inc    %ebp
    1043:	52                   	push   %edx
    1044:	52                   	push   %edx
    1045:	4f                   	dec    %edi
    1046:	52                   	push   %edx
    1047:	43                   	inc    %ebx
    1048:	48                   	dec    %eax
    1049:	45                   	inc    %ebp
    104a:	43                   	inc    %ebx
    104b:	4b                   	dec    %ebx
    104c:	5f                   	pop    %edi
    104d:	4e                   	dec    %esi
    104e:	50                   	push   %eax
    104f:	00 5f 53             	add    %bl,0x53(%edi)
    1052:	43                   	inc    %ebx
    1053:	5f                   	pop    %edi
    1054:	58                   	pop    %eax
    1055:	4f                   	dec    %edi
    1056:	50                   	push   %eax
    1057:	45                   	inc    %ebp
    1058:	4e                   	dec    %esi
    1059:	5f                   	pop    %edi
    105a:	43                   	inc    %ebx
    105b:	52                   	push   %edx
    105c:	59                   	pop    %ecx
    105d:	50                   	push   %eax
    105e:	54                   	push   %esp
    105f:	00 5f 53             	add    %bl,0x53(%edi)
    1062:	43                   	inc    %ebx
    1063:	5f                   	pop    %edi
    1064:	4c                   	dec    %esp
    1065:	45                   	inc    %ebp
    1066:	56                   	push   %esi
    1067:	45                   	inc    %ebp
    1068:	4c                   	dec    %esp
    1069:	31 5f 49             	xor    %ebx,0x49(%edi)
    106c:	43                   	inc    %ebx
    106d:	41                   	inc    %ecx
    106e:	43                   	inc    %ebx
    106f:	48                   	dec    %eax
    1070:	45                   	inc    %ebp
    1071:	5f                   	pop    %edi
    1072:	4c                   	dec    %esp
    1073:	49                   	dec    %ecx
    1074:	4e                   	dec    %esi
    1075:	45                   	inc    %ebp
    1076:	53                   	push   %ebx
    1077:	49                   	dec    %ecx
    1078:	5a                   	pop    %edx
    1079:	45                   	inc    %ebp
    107a:	00 5f 53             	add    %bl,0x53(%edi)
    107d:	43                   	inc    %ebx
    107e:	5f                   	pop    %edi
    107f:	43                   	inc    %ebx
    1080:	5f                   	pop    %edi
    1081:	4c                   	dec    %esp
    1082:	41                   	inc    %ecx
    1083:	4e                   	dec    %esi
    1084:	47                   	inc    %edi
    1085:	5f                   	pop    %edi
    1086:	53                   	push   %ebx
    1087:	55                   	push   %ebp
    1088:	50                   	push   %eax
    1089:	50                   	push   %eax
    108a:	4f                   	dec    %edi
    108b:	52                   	push   %edx
    108c:	54                   	push   %esp
    108d:	5f                   	pop    %edi
    108e:	52                   	push   %edx
    108f:	00 5f 53             	add    %bl,0x53(%edi)
    1092:	43                   	inc    %ebx
    1093:	5f                   	pop    %edi
    1094:	54                   	push   %esp
    1095:	52                   	push   %edx
    1096:	41                   	inc    %ecx
    1097:	43                   	inc    %ebx
    1098:	45                   	inc    %ebp
    1099:	5f                   	pop    %edi
    109a:	55                   	push   %ebp
    109b:	53                   	push   %ebx
    109c:	45                   	inc    %ebp
    109d:	52                   	push   %edx
    109e:	5f                   	pop    %edi
    109f:	45                   	inc    %ebp
    10a0:	56                   	push   %esi
    10a1:	45                   	inc    %ebp
    10a2:	4e                   	dec    %esi
    10a3:	54                   	push   %esp
    10a4:	5f                   	pop    %edi
    10a5:	4d                   	dec    %ebp
    10a6:	41                   	inc    %ecx
    10a7:	58                   	pop    %eax
    10a8:	00 5f 53             	add    %bl,0x53(%edi)
    10ab:	43                   	inc    %ebx
    10ac:	5f                   	pop    %edi
    10ad:	54                   	push   %esp
    10ae:	49                   	dec    %ecx
    10af:	4d                   	dec    %ebp
    10b0:	45                   	inc    %ebp
    10b1:	52                   	push   %edx
    10b2:	5f                   	pop    %edi
    10b3:	4d                   	dec    %ebp
    10b4:	41                   	inc    %ecx
    10b5:	58                   	pop    %eax
    10b6:	00 50 54             	add    %dl,0x54(%eax)
    10b9:	48                   	dec    %eax
    10ba:	52                   	push   %edx
    10bb:	45                   	inc    %ebp
    10bc:	41                   	inc    %ecx
    10bd:	44                   	inc    %esp
    10be:	5f                   	pop    %edi
    10bf:	4d                   	dec    %ebp
    10c0:	55                   	push   %ebp
    10c1:	54                   	push   %esp
    10c2:	45                   	inc    %ebp
    10c3:	58                   	pop    %eax
    10c4:	5f                   	pop    %edi
    10c5:	4e                   	dec    %esi
    10c6:	4f                   	dec    %edi
    10c7:	52                   	push   %edx
    10c8:	4d                   	dec    %ebp
    10c9:	41                   	inc    %ecx
    10ca:	4c                   	dec    %esp
    10cb:	00 5f 53             	add    %bl,0x53(%edi)
    10ce:	43                   	inc    %ebx
    10cf:	5f                   	pop    %edi
    10d0:	32 5f 50             	xor    0x50(%edi),%bl
    10d3:	42                   	inc    %edx
    10d4:	53                   	push   %ebx
    10d5:	00 5f 53             	add    %bl,0x53(%edi)
    10d8:	43                   	inc    %ebx
    10d9:	5f                   	pop    %edi
    10da:	43                   	inc    %ebx
    10db:	50                   	push   %eax
    10dc:	55                   	push   %ebp
    10dd:	54                   	push   %esp
    10de:	49                   	dec    %ecx
    10df:	4d                   	dec    %ebp
    10e0:	45                   	inc    %ebp
    10e1:	00 5f 5f             	add    %bl,0x5f(%edi)
    10e4:	70 69                	jo     114f <__FRAME_END__+0xb0b>
    10e6:	64 5f                	fs pop %edi
    10e8:	74 79                	je     1163 <__FRAME_END__+0xb1f>
    10ea:	70 65                	jo     1151 <__FRAME_END__+0xb0d>
    10ec:	00 5f 53             	add    %bl,0x53(%edi)
    10ef:	43                   	inc    %ebx
    10f0:	5f                   	pop    %edi
    10f1:	53                   	push   %ebx
    10f2:	50                   	push   %eax
    10f3:	4f                   	dec    %edi
    10f4:	52                   	push   %edx
    10f5:	41                   	inc    %ecx
    10f6:	44                   	inc    %esp
    10f7:	49                   	dec    %ecx
    10f8:	43                   	inc    %ebx
    10f9:	5f                   	pop    %edi
    10fa:	53                   	push   %ebx
    10fb:	45                   	inc    %ebp
    10fc:	52                   	push   %edx
    10fd:	56                   	push   %esi
    10fe:	45                   	inc    %ebp
    10ff:	52                   	push   %edx
    1100:	00 5f 53             	add    %bl,0x53(%edi)
    1103:	43                   	inc    %ebx
    1104:	5f                   	pop    %edi
    1105:	43                   	inc    %ebx
    1106:	4c                   	dec    %esp
    1107:	4f                   	dec    %edi
    1108:	43                   	inc    %ebx
    1109:	4b                   	dec    %ebx
    110a:	5f                   	pop    %edi
    110b:	53                   	push   %ebx
    110c:	45                   	inc    %ebp
    110d:	4c                   	dec    %esp
    110e:	45                   	inc    %ebp
    110f:	43                   	inc    %ebx
    1110:	54                   	push   %esp
    1111:	49                   	dec    %ecx
    1112:	4f                   	dec    %edi
    1113:	4e                   	dec    %esi
    1114:	00 5f 53             	add    %bl,0x53(%edi)
    1117:	43                   	inc    %ebx
    1118:	5f                   	pop    %edi
    1119:	58                   	pop    %eax
    111a:	42                   	inc    %edx
    111b:	53                   	push   %ebx
    111c:	35 5f 49 4c 50       	xor    $0x504c495f,%eax
    1121:	33 32                	xor    (%edx),%esi
    1123:	5f                   	pop    %edi
    1124:	4f                   	dec    %edi
    1125:	46                   	inc    %esi
    1126:	46                   	inc    %esi
    1127:	33 32                	xor    (%edx),%esi
    1129:	00 5f 53             	add    %bl,0x53(%edi)
    112c:	43                   	inc    %ebx
    112d:	5f                   	pop    %edi
    112e:	4e                   	dec    %esi
    112f:	45                   	inc    %ebp
    1130:	54                   	push   %esp
    1131:	57                   	push   %edi
    1132:	4f                   	dec    %edi
    1133:	52                   	push   %edx
    1134:	4b                   	dec    %ebx
    1135:	49                   	dec    %ecx
    1136:	4e                   	dec    %esi
    1137:	47                   	inc    %edi
    1138:	00 5f 53             	add    %bl,0x53(%edi)
    113b:	43                   	inc    %ebx
    113c:	5f                   	pop    %edi
    113d:	4c                   	dec    %esp
    113e:	45                   	inc    %ebp
    113f:	56                   	push   %esi
    1140:	45                   	inc    %ebp
    1141:	4c                   	dec    %esp
    1142:	34 5f                	xor    $0x5f,%al
    1144:	43                   	inc    %ebx
    1145:	41                   	inc    %ecx
    1146:	43                   	inc    %ebx
    1147:	48                   	dec    %eax
    1148:	45                   	inc    %ebp
    1149:	5f                   	pop    %edi
    114a:	4c                   	dec    %esp
    114b:	49                   	dec    %ecx
    114c:	4e                   	dec    %esi
    114d:	45                   	inc    %ebp
    114e:	53                   	push   %ebx
    114f:	49                   	dec    %ecx
    1150:	5a                   	pop    %edx
    1151:	45                   	inc    %ebp
    1152:	00 5f 53             	add    %bl,0x53(%edi)
    1155:	43                   	inc    %ebx
    1156:	5f                   	pop    %edi
    1157:	41                   	inc    %ecx
    1158:	54                   	push   %esp
    1159:	45                   	inc    %ebp
    115a:	58                   	pop    %eax
    115b:	49                   	dec    %ecx
    115c:	54                   	push   %esp
    115d:	5f                   	pop    %edi
    115e:	4d                   	dec    %ebp
    115f:	41                   	inc    %ecx
    1160:	58                   	pop    %eax
    1161:	00 5f 53             	add    %bl,0x53(%edi)
    1164:	43                   	inc    %ebx
    1165:	5f                   	pop    %edi
    1166:	50                   	push   %eax
    1167:	49                   	dec    %ecx
    1168:	49                   	dec    %ecx
    1169:	5f                   	pop    %edi
    116a:	4f                   	dec    %edi
    116b:	53                   	push   %ebx
    116c:	49                   	dec    %ecx
    116d:	5f                   	pop    %edi
    116e:	43                   	inc    %ebx
    116f:	4f                   	dec    %edi
    1170:	54                   	push   %esp
    1171:	53                   	push   %ebx
    1172:	00 5f 53             	add    %bl,0x53(%edi)
    1175:	43                   	inc    %ebx
    1176:	5f                   	pop    %edi
    1177:	4d                   	dec    %ebp
    1178:	51                   	push   %ecx
    1179:	5f                   	pop    %edi
    117a:	50                   	push   %eax
    117b:	52                   	push   %edx
    117c:	49                   	dec    %ecx
    117d:	4f                   	dec    %edi
    117e:	5f                   	pop    %edi
    117f:	4d                   	dec    %ebp
    1180:	41                   	inc    %ecx
    1181:	58                   	pop    %eax
    1182:	00 5f 53             	add    %bl,0x53(%edi)
    1185:	43                   	inc    %ebx
    1186:	5f                   	pop    %edi
    1187:	53                   	push   %ebx
    1188:	45                   	inc    %ebp
    1189:	4d                   	dec    %ebp
    118a:	5f                   	pop    %edi
    118b:	56                   	push   %esi
    118c:	41                   	inc    %ecx
    118d:	4c                   	dec    %esp
    118e:	55                   	push   %ebp
    118f:	45                   	inc    %ebp
    1190:	5f                   	pop    %edi
    1191:	4d                   	dec    %ebp
    1192:	41                   	inc    %ecx
    1193:	58                   	pop    %eax
    1194:	00 5f 53             	add    %bl,0x53(%edi)
    1197:	43                   	inc    %ebx
    1198:	5f                   	pop    %edi
    1199:	43                   	inc    %ebx
    119a:	5f                   	pop    %edi
    119b:	4c                   	dec    %esp
    119c:	41                   	inc    %ecx
    119d:	4e                   	dec    %esi
    119e:	47                   	inc    %edi
    119f:	5f                   	pop    %edi
    11a0:	53                   	push   %ebx
    11a1:	55                   	push   %ebp
    11a2:	50                   	push   %eax
    11a3:	50                   	push   %eax
    11a4:	4f                   	dec    %edi
    11a5:	52                   	push   %edx
    11a6:	54                   	push   %esp
    11a7:	00 5f 53             	add    %bl,0x53(%edi)
    11aa:	43                   	inc    %ebx
    11ab:	5f                   	pop    %edi
    11ac:	54                   	push   %esp
    11ad:	49                   	dec    %ecx
    11ae:	4d                   	dec    %ebp
    11af:	45                   	inc    %ebp
    11b0:	52                   	push   %edx
    11b1:	53                   	push   %ebx
    11b2:	00 5f 53             	add    %bl,0x53(%edi)
    11b5:	43                   	inc    %ebx
    11b6:	5f                   	pop    %edi
    11b7:	50                   	push   %eax
    11b8:	41                   	inc    %ecx
    11b9:	53                   	push   %ebx
    11ba:	53                   	push   %ebx
    11bb:	5f                   	pop    %edi
    11bc:	4d                   	dec    %ebp
    11bd:	41                   	inc    %ecx
    11be:	58                   	pop    %eax
    11bf:	00 5f 53             	add    %bl,0x53(%edi)
    11c2:	43                   	inc    %ebx
    11c3:	5f                   	pop    %edi
    11c4:	46                   	inc    %esi
    11c5:	53                   	push   %ebx
    11c6:	59                   	pop    %ecx
    11c7:	4e                   	dec    %esi
    11c8:	43                   	inc    %ebx
    11c9:	00 5f 53             	add    %bl,0x53(%edi)
    11cc:	43                   	inc    %ebx
    11cd:	5f                   	pop    %edi
    11ce:	53                   	push   %ebx
    11cf:	45                   	inc    %ebp
    11d0:	4c                   	dec    %esp
    11d1:	45                   	inc    %ebp
    11d2:	43                   	inc    %ebx
    11d3:	54                   	push   %esp
    11d4:	00 50 54             	add    %dl,0x54(%eax)
    11d7:	48                   	dec    %eax
    11d8:	52                   	push   %edx
    11d9:	45                   	inc    %ebp
    11da:	41                   	inc    %ecx
    11db:	44                   	inc    %esp
    11dc:	5f                   	pop    %edi
    11dd:	4d                   	dec    %ebp
    11de:	55                   	push   %ebp
    11df:	54                   	push   %esp
    11e0:	45                   	inc    %ebp
    11e1:	58                   	pop    %eax
    11e2:	5f                   	pop    %edi
    11e3:	44                   	inc    %esp
    11e4:	45                   	inc    %ebp
    11e5:	46                   	inc    %esi
    11e6:	41                   	inc    %ecx
    11e7:	55                   	push   %ebp
    11e8:	4c                   	dec    %esp
    11e9:	54                   	push   %esp
    11ea:	00 5f 53             	add    %bl,0x53(%edi)
    11ed:	43                   	inc    %ebx
    11ee:	5f                   	pop    %edi
    11ef:	54                   	push   %esp
    11f0:	54                   	push   %esp
    11f1:	59                   	pop    %ecx
    11f2:	5f                   	pop    %edi
    11f3:	4e                   	dec    %esi
    11f4:	41                   	inc    %ecx
    11f5:	4d                   	dec    %ebp
    11f6:	45                   	inc    %ebp
    11f7:	5f                   	pop    %edi
    11f8:	4d                   	dec    %ebp
    11f9:	41                   	inc    %ecx
    11fa:	58                   	pop    %eax
    11fb:	00 5f 53             	add    %bl,0x53(%edi)
    11fe:	43                   	inc    %ebx
    11ff:	5f                   	pop    %edi
    1200:	4d                   	dec    %ebp
    1201:	45                   	inc    %ebp
    1202:	53                   	push   %ebx
    1203:	53                   	push   %ebx
    1204:	41                   	inc    %ecx
    1205:	47                   	inc    %edi
    1206:	45                   	inc    %ebp
    1207:	5f                   	pop    %edi
    1208:	50                   	push   %eax
    1209:	41                   	inc    %ecx
    120a:	53                   	push   %ebx
    120b:	53                   	push   %ebx
    120c:	49                   	dec    %ecx
    120d:	4e                   	dec    %esi
    120e:	47                   	inc    %edi
    120f:	00 50 54             	add    %dl,0x54(%eax)
    1212:	48                   	dec    %eax
    1213:	52                   	push   %edx
    1214:	45                   	inc    %ebp
    1215:	41                   	inc    %ecx
    1216:	44                   	inc    %esp
    1217:	5f                   	pop    %edi
    1218:	4d                   	dec    %ebp
    1219:	55                   	push   %ebp
    121a:	54                   	push   %esp
    121b:	45                   	inc    %ebp
    121c:	58                   	pop    %eax
    121d:	5f                   	pop    %edi
    121e:	46                   	inc    %esi
    121f:	41                   	inc    %ecx
    1220:	53                   	push   %ebx
    1221:	54                   	push   %esp
    1222:	5f                   	pop    %edi
    1223:	4e                   	dec    %esi
    1224:	50                   	push   %eax
    1225:	00 5f 53             	add    %bl,0x53(%edi)
    1228:	43                   	inc    %ebx
    1229:	5f                   	pop    %edi
    122a:	4c                   	dec    %esp
    122b:	45                   	inc    %ebp
    122c:	56                   	push   %esi
    122d:	45                   	inc    %ebp
    122e:	4c                   	dec    %esp
    122f:	32 5f 43             	xor    0x43(%edi),%bl
    1232:	41                   	inc    %ecx
    1233:	43                   	inc    %ebx
    1234:	48                   	dec    %eax
    1235:	45                   	inc    %ebp
    1236:	5f                   	pop    %edi
    1237:	41                   	inc    %ecx
    1238:	53                   	push   %ebx
    1239:	53                   	push   %ebx
    123a:	4f                   	dec    %edi
    123b:	43                   	inc    %ebx
    123c:	00 5f 53             	add    %bl,0x53(%edi)
    123f:	43                   	inc    %ebx
    1240:	5f                   	pop    %edi
    1241:	42                   	inc    %edx
    1242:	43                   	inc    %ebx
    1243:	5f                   	pop    %edi
    1244:	42                   	inc    %edx
    1245:	41                   	inc    %ecx
    1246:	53                   	push   %ebx
    1247:	45                   	inc    %ebp
    1248:	5f                   	pop    %edi
    1249:	4d                   	dec    %ebp
    124a:	41                   	inc    %ecx
    124b:	58                   	pop    %eax
    124c:	00 5f 53             	add    %bl,0x53(%edi)
    124f:	43                   	inc    %ebx
    1250:	5f                   	pop    %edi
    1251:	4c                   	dec    %esp
    1252:	45                   	inc    %ebp
    1253:	56                   	push   %esi
    1254:	45                   	inc    %ebp
    1255:	4c                   	dec    %esp
    1256:	32 5f 43             	xor    0x43(%edi),%bl
    1259:	41                   	inc    %ecx
    125a:	43                   	inc    %ebx
    125b:	48                   	dec    %eax
    125c:	45                   	inc    %ebp
    125d:	5f                   	pop    %edi
    125e:	53                   	push   %ebx
    125f:	49                   	dec    %ecx
    1260:	5a                   	pop    %edx
    1261:	45                   	inc    %ebp
    1262:	00 5f 53             	add    %bl,0x53(%edi)
    1265:	43                   	inc    %ebx
    1266:	5f                   	pop    %edi
    1267:	45                   	inc    %ebp
    1268:	58                   	pop    %eax
    1269:	50                   	push   %eax
    126a:	52                   	push   %edx
    126b:	5f                   	pop    %edi
    126c:	4e                   	dec    %esi
    126d:	45                   	inc    %ebp
    126e:	53                   	push   %ebx
    126f:	54                   	push   %esp
    1270:	5f                   	pop    %edi
    1271:	4d                   	dec    %ebp
    1272:	41                   	inc    %ecx
    1273:	58                   	pop    %eax
    1274:	00 5f 53             	add    %bl,0x53(%edi)
    1277:	43                   	inc    %ebx
    1278:	5f                   	pop    %edi
    1279:	53                   	push   %ebx
    127a:	59                   	pop    %ecx
    127b:	4e                   	dec    %esi
    127c:	43                   	inc    %ebx
    127d:	48                   	dec    %eax
    127e:	52                   	push   %edx
    127f:	4f                   	dec    %edi
    1280:	4e                   	dec    %esi
    1281:	49                   	dec    %ecx
    1282:	5a                   	pop    %edx
    1283:	45                   	inc    %ebp
    1284:	44                   	inc    %esp
    1285:	5f                   	pop    %edi
    1286:	49                   	dec    %ecx
    1287:	4f                   	dec    %edi
    1288:	00 5f 53             	add    %bl,0x53(%edi)
    128b:	43                   	inc    %ebx
    128c:	5f                   	pop    %edi
    128d:	58                   	pop    %eax
    128e:	4f                   	dec    %edi
    128f:	50                   	push   %eax
    1290:	45                   	inc    %ebp
    1291:	4e                   	dec    %esi
    1292:	5f                   	pop    %edi
    1293:	53                   	push   %ebx
    1294:	54                   	push   %esp
    1295:	52                   	push   %edx
    1296:	45                   	inc    %ebp
    1297:	41                   	inc    %ecx
    1298:	4d                   	dec    %ebp
    1299:	53                   	push   %ebx
    129a:	00 5f 53             	add    %bl,0x53(%edi)
    129d:	43                   	inc    %ebx
    129e:	5f                   	pop    %edi
    129f:	53                   	push   %ebx
    12a0:	48                   	dec    %eax
    12a1:	52                   	push   %edx
    12a2:	54                   	push   %esp
    12a3:	5f                   	pop    %edi
    12a4:	4d                   	dec    %ebp
    12a5:	49                   	dec    %ecx
    12a6:	4e                   	dec    %esi
    12a7:	00 5f 53             	add    %bl,0x53(%edi)
    12aa:	43                   	inc    %ebx
    12ab:	5f                   	pop    %edi
    12ac:	32 5f 50             	xor    0x50(%edi),%bl
    12af:	42                   	inc    %edx
    12b0:	53                   	push   %ebx
    12b1:	5f                   	pop    %edi
    12b2:	54                   	push   %esp
    12b3:	52                   	push   %edx
    12b4:	41                   	inc    %ecx
    12b5:	43                   	inc    %ebx
    12b6:	4b                   	dec    %ebx
    12b7:	00 5f 53             	add    %bl,0x53(%edi)
    12ba:	43                   	inc    %ebx
    12bb:	5f                   	pop    %edi
    12bc:	4e                   	dec    %esi
    12bd:	47                   	inc    %edi
    12be:	52                   	push   %edx
    12bf:	4f                   	dec    %edi
    12c0:	55                   	push   %ebp
    12c1:	50                   	push   %eax
    12c2:	53                   	push   %ebx
    12c3:	5f                   	pop    %edi
    12c4:	4d                   	dec    %ebp
    12c5:	41                   	inc    %ecx
    12c6:	58                   	pop    %eax
    12c7:	00 5f 53             	add    %bl,0x53(%edi)
    12ca:	43                   	inc    %ebx
    12cb:	5f                   	pop    %edi
    12cc:	56                   	push   %esi
    12cd:	36 5f                	ss pop %edi
    12cf:	4c                   	dec    %esp
    12d0:	50                   	push   %eax
    12d1:	42                   	inc    %edx
    12d2:	49                   	dec    %ecx
    12d3:	47                   	inc    %edi
    12d4:	5f                   	pop    %edi
    12d5:	4f                   	dec    %edi
    12d6:	46                   	inc    %esi
    12d7:	46                   	inc    %esi
    12d8:	42                   	inc    %edx
    12d9:	49                   	dec    %ecx
    12da:	47                   	inc    %edi
    12db:	00 5f 53             	add    %bl,0x53(%edi)
    12de:	43                   	inc    %ebx
    12df:	5f                   	pop    %edi
    12e0:	4c                   	dec    %esp
    12e1:	45                   	inc    %ebp
    12e2:	56                   	push   %esi
    12e3:	45                   	inc    %ebp
    12e4:	4c                   	dec    %esp
    12e5:	31 5f 49             	xor    %ebx,0x49(%edi)
    12e8:	43                   	inc    %ebx
    12e9:	41                   	inc    %ecx
    12ea:	43                   	inc    %ebx
    12eb:	48                   	dec    %eax
    12ec:	45                   	inc    %ebp
    12ed:	5f                   	pop    %edi
    12ee:	53                   	push   %ebx
    12ef:	49                   	dec    %ecx
    12f0:	5a                   	pop    %edx
    12f1:	45                   	inc    %ebp
    12f2:	00 5f 53             	add    %bl,0x53(%edi)
    12f5:	43                   	inc    %ebx
    12f6:	5f                   	pop    %edi
    12f7:	45                   	inc    %ebp
    12f8:	51                   	push   %ecx
    12f9:	55                   	push   %ebp
    12fa:	49                   	dec    %ecx
    12fb:	56                   	push   %esi
    12fc:	5f                   	pop    %edi
    12fd:	43                   	inc    %ebx
    12fe:	4c                   	dec    %esp
    12ff:	41                   	inc    %ecx
    1300:	53                   	push   %ebx
    1301:	53                   	push   %ebx
    1302:	5f                   	pop    %edi
    1303:	4d                   	dec    %ebp
    1304:	41                   	inc    %ecx
    1305:	58                   	pop    %eax
    1306:	00 5f 53             	add    %bl,0x53(%edi)
    1309:	43                   	inc    %ebx
    130a:	5f                   	pop    %edi
    130b:	42                   	inc    %edx
    130c:	41                   	inc    %ecx
    130d:	53                   	push   %ebx
    130e:	45                   	inc    %ebp
    130f:	00 5f 53             	add    %bl,0x53(%edi)
    1312:	43                   	inc    %ebx
    1313:	5f                   	pop    %edi
    1314:	50                   	push   %eax
    1315:	52                   	push   %edx
    1316:	49                   	dec    %ecx
    1317:	4f                   	dec    %edi
    1318:	52                   	push   %edx
    1319:	49                   	dec    %ecx
    131a:	54                   	push   %esp
    131b:	59                   	pop    %ecx
    131c:	5f                   	pop    %edi
    131d:	53                   	push   %ebx
    131e:	43                   	inc    %ebx
    131f:	48                   	dec    %eax
    1320:	45                   	inc    %ebp
    1321:	44                   	inc    %esp
    1322:	55                   	push   %ebp
    1323:	4c                   	dec    %esp
    1324:	49                   	dec    %ecx
    1325:	4e                   	dec    %esi
    1326:	47                   	inc    %edi
    1327:	00 50 54             	add    %dl,0x54(%eax)
    132a:	48                   	dec    %eax
    132b:	52                   	push   %edx
    132c:	45                   	inc    %ebp
    132d:	41                   	inc    %ecx
    132e:	44                   	inc    %esp
    132f:	5f                   	pop    %edi
    1330:	4d                   	dec    %ebp
    1331:	55                   	push   %ebp
    1332:	54                   	push   %esp
    1333:	45                   	inc    %ebp
    1334:	58                   	pop    %eax
    1335:	5f                   	pop    %edi
    1336:	52                   	push   %edx
    1337:	45                   	inc    %ebp
    1338:	43                   	inc    %ebx
    1339:	55                   	push   %ebp
    133a:	52                   	push   %edx
    133b:	53                   	push   %ebx
    133c:	49                   	dec    %ecx
    133d:	56                   	push   %esi
    133e:	45                   	inc    %ebp
    133f:	00 5f 53             	add    %bl,0x53(%edi)
    1342:	43                   	inc    %ebx
    1343:	5f                   	pop    %edi
    1344:	53                   	push   %ebx
    1345:	53                   	push   %ebx
    1346:	49                   	dec    %ecx
    1347:	5a                   	pop    %edx
    1348:	45                   	inc    %ebp
    1349:	5f                   	pop    %edi
    134a:	4d                   	dec    %ebp
    134b:	41                   	inc    %ecx
    134c:	58                   	pop    %eax
    134d:	00 5f 53             	add    %bl,0x53(%edi)
    1350:	43                   	inc    %ebx
    1351:	5f                   	pop    %edi
    1352:	47                   	inc    %edi
    1353:	45                   	inc    %ebp
    1354:	54                   	push   %esp
    1355:	50                   	push   %eax
    1356:	57                   	push   %edi
    1357:	5f                   	pop    %edi
    1358:	52                   	push   %edx
    1359:	5f                   	pop    %edi
    135a:	53                   	push   %ebx
    135b:	49                   	dec    %ecx
    135c:	5a                   	pop    %edx
    135d:	45                   	inc    %ebp
    135e:	5f                   	pop    %edi
    135f:	4d                   	dec    %ebp
    1360:	41                   	inc    %ecx
    1361:	58                   	pop    %eax
    1362:	00 5f 53             	add    %bl,0x53(%edi)
    1365:	43                   	inc    %ebx
    1366:	5f                   	pop    %edi
    1367:	58                   	pop    %eax
    1368:	4f                   	dec    %edi
    1369:	50                   	push   %eax
    136a:	45                   	inc    %ebp
    136b:	4e                   	dec    %esi
    136c:	5f                   	pop    %edi
    136d:	4c                   	dec    %esp
    136e:	45                   	inc    %ebp
    136f:	47                   	inc    %edi
    1370:	41                   	inc    %ecx
    1371:	43                   	inc    %ebx
    1372:	59                   	pop    %ecx
    1373:	00 5f 53             	add    %bl,0x53(%edi)
    1376:	43                   	inc    %ebx
    1377:	5f                   	pop    %edi
    1378:	54                   	push   %esp
    1379:	48                   	dec    %eax
    137a:	52                   	push   %edx
    137b:	45                   	inc    %ebp
    137c:	41                   	inc    %ecx
    137d:	44                   	inc    %esp
    137e:	5f                   	pop    %edi
    137f:	50                   	push   %eax
    1380:	52                   	push   %edx
    1381:	49                   	dec    %ecx
    1382:	4f                   	dec    %edi
    1383:	5f                   	pop    %edi
    1384:	49                   	dec    %ecx
    1385:	4e                   	dec    %esi
    1386:	48                   	dec    %eax
    1387:	45                   	inc    %ebp
    1388:	52                   	push   %edx
    1389:	49                   	dec    %ecx
    138a:	54                   	push   %esp
    138b:	00 2f                	add    %ch,(%edi)
    138d:	68 6f 6d 65 2f       	push   $0x2f656d6f
    1392:	73 6f                	jae    1403 <__FRAME_END__+0xdbf>
    1394:	72 69                	jb     13ff <__FRAME_END__+0xdbb>
    1396:	6e                   	outsb  %ds:(%esi),(%dx)
    1397:	61                   	popa   
    1398:	2f                   	das    
    1399:	74 65                	je     1400 <__FRAME_END__+0xdbc>
    139b:	73 74                	jae    1411 <__FRAME_END__+0xdcd>
    139d:	74 6f                	je     140e <__FRAME_END__+0xdca>
    139f:	6f                   	outsl  %ds:(%esi),(%dx)
    13a0:	6c                   	insb   (%dx),%es:(%edi)
    13a1:	73 2f                	jae    13d2 <__FRAME_END__+0xd8e>
    13a3:	72 69                	jb     140e <__FRAME_END__+0xdca>
    13a5:	76 65                	jbe    140c <__FRAME_END__+0xdc8>
    13a7:	72 2f                	jb     13d8 <__FRAME_END__+0xd94>
    13a9:	62 65 6e             	bound  %esp,0x6e(%ebp)
    13ac:	63 68 6d             	arpl   %bp,0x6d(%eax)
    13af:	61                   	popa   
    13b0:	72 6b                	jb     141d <__FRAME_END__+0xdd9>
    13b2:	69 6e 67 2d 70 61 79 	imul   $0x7961702d,0x67(%esi),%ebp
    13b9:	6c                   	insb   (%dx),%es:(%edi)
    13ba:	6f                   	outsl  %ds:(%esi),(%dx)
    13bb:	61                   	popa   
    13bc:	64 2f                	fs das 
    13be:	73 69                	jae    1429 <__FRAME_END__+0xde5>
    13c0:	6d                   	insl   (%dx),%es:(%edi)
    13c1:	70 6c                	jo     142f <__FRAME_END__+0xdeb>
    13c3:	75 5f                	jne    1424 <__FRAME_END__+0xde0>
    13c5:	65 78 65             	gs js  142d <__FRAME_END__+0xde9>
    13c8:	6d                   	insl   (%dx),%es:(%edi)
    13c9:	70 6c                	jo     1437 <__FRAME_END__+0xdf3>
    13cb:	75 2f                	jne    13fc <__FRAME_END__+0xdb8>
    13cd:	50                   	push   %eax
    13ce:	61                   	popa   
    13cf:	79 6c                	jns    143d <__FRAME_END__+0xdf9>
    13d1:	6f                   	outsl  %ds:(%esi),(%dx)
    13d2:	61                   	popa   
    13d3:	64 2e 63 70 70       	fs arpl %si,%cs:0x70(%eax)
    13d8:	00 5f 53             	add    %bl,0x53(%edi)
    13db:	43                   	inc    %ebx
    13dc:	5f                   	pop    %edi
    13dd:	54                   	push   %esp
    13de:	52                   	push   %edx
    13df:	41                   	inc    %ecx
    13e0:	43                   	inc    %ebx
    13e1:	45                   	inc    %ebp
    13e2:	00 5f 53             	add    %bl,0x53(%edi)
    13e5:	43                   	inc    %ebx
    13e6:	5f                   	pop    %edi
    13e7:	4e                   	dec    %esi
    13e8:	4c                   	dec    %esp
    13e9:	5f                   	pop    %edi
    13ea:	53                   	push   %ebx
    13eb:	45                   	inc    %ebp
    13ec:	54                   	push   %esp
    13ed:	4d                   	dec    %ebp
    13ee:	41                   	inc    %ecx
    13ef:	58                   	pop    %eax
    13f0:	00 77 63             	add    %dh,0x63(%edi)
    13f3:	68 61 72 5f 74       	push   $0x745f7261
    13f8:	00 5f 53             	add    %bl,0x53(%edi)
    13fb:	43                   	inc    %ebx
    13fc:	5f                   	pop    %edi
    13fd:	32 5f 43             	xor    0x43(%edi),%bl
    1400:	5f                   	pop    %edi
    1401:	42                   	inc    %edx
    1402:	49                   	dec    %ecx
    1403:	4e                   	dec    %esi
    1404:	44                   	inc    %esp
    1405:	00 5f 53             	add    %bl,0x53(%edi)
    1408:	43                   	inc    %ebx
    1409:	5f                   	pop    %edi
    140a:	54                   	push   %esp
    140b:	48                   	dec    %eax
    140c:	52                   	push   %edx
    140d:	45                   	inc    %ebp
    140e:	41                   	inc    %ecx
    140f:	44                   	inc    %esp
    1410:	5f                   	pop    %edi
    1411:	41                   	inc    %ecx
    1412:	54                   	push   %esp
    1413:	54                   	push   %esp
    1414:	52                   	push   %edx
    1415:	5f                   	pop    %edi
    1416:	53                   	push   %ebx
    1417:	54                   	push   %esp
    1418:	41                   	inc    %ecx
    1419:	43                   	inc    %ebx
    141a:	4b                   	dec    %ebx
    141b:	53                   	push   %ebx
    141c:	49                   	dec    %ecx
    141d:	5a                   	pop    %edx
    141e:	45                   	inc    %ebp
	...

Disassembly of section .debug_loc:

00000000 <.debug_loc>:
   0:	00 00                	add    %al,(%eax)
   2:	00 00                	add    %al,(%eax)
   4:	1a 00                	sbb    (%eax),%al
   6:	00 00                	add    %al,(%eax)
   8:	02 00                	add    (%eax),%al
   a:	31 9f 1a 00 00 00    	xor    %ebx,0x1a(%edi)
  10:	20 00                	and    %al,(%eax)
  12:	00 00                	add    %al,(%eax)
  14:	01 00                	add    %eax,(%eax)
  16:	50                   	push   %eax
	...
