
libsimple-accumulator.so:     file format elf32-i386


Disassembly of section .init:

000003bc <_init>:
 3bc:	53                   	push   %ebx
 3bd:	83 ec 08             	sub    $0x8,%esp
 3c0:	e8 3b 00 00 00       	call   400 <__x86.get_pc_thunk.bx>
 3c5:	81 c3 3b 1c 00 00    	add    $0x1c3b,%ebx
 3cb:	8b 83 fc ff ff ff    	mov    -0x4(%ebx),%eax
 3d1:	85 c0                	test   %eax,%eax
 3d3:	74 05                	je     3da <_init+0x1e>
 3d5:	e8 1e 00 00 00       	call   3f8 <_init+0x3c>
 3da:	83 c4 08             	add    $0x8,%esp
 3dd:	5b                   	pop    %ebx
 3de:	c3                   	ret    

Disassembly of section .plt:

000003e0 <.plt>:
 3e0:	ff b3 04 00 00 00    	pushl  0x4(%ebx)
 3e6:	ff a3 08 00 00 00    	jmp    *0x8(%ebx)
 3ec:	00 00                	add    %al,(%eax)
	...

Disassembly of section .plt.got:

000003f0 <.plt.got>:
 3f0:	ff a3 ec ff ff ff    	jmp    *-0x14(%ebx)
 3f6:	66 90                	xchg   %ax,%ax
 3f8:	ff a3 fc ff ff ff    	jmp    *-0x4(%ebx)
 3fe:	66 90                	xchg   %ax,%ax

Disassembly of section .text:

00000400 <__x86.get_pc_thunk.bx>:
 400:	8b 1c 24             	mov    (%esp),%ebx
 403:	c3                   	ret    
 404:	66 90                	xchg   %ax,%ax
 406:	66 90                	xchg   %ax,%ax
 408:	66 90                	xchg   %ax,%ax
 40a:	66 90                	xchg   %ax,%ax
 40c:	66 90                	xchg   %ax,%ax
 40e:	66 90                	xchg   %ax,%ax

00000410 <deregister_tm_clones>:
 410:	e8 17 01 00 00       	call   52c <__x86.get_pc_thunk.dx>
 415:	81 c2 eb 1b 00 00    	add    $0x1beb,%edx
 41b:	8d 8a 10 00 00 00    	lea    0x10(%edx),%ecx
 421:	8d 82 13 00 00 00    	lea    0x13(%edx),%eax
 427:	29 c8                	sub    %ecx,%eax
 429:	83 f8 06             	cmp    $0x6,%eax
 42c:	76 17                	jbe    445 <deregister_tm_clones+0x35>
 42e:	8b 82 f4 ff ff ff    	mov    -0xc(%edx),%eax
 434:	85 c0                	test   %eax,%eax
 436:	74 0d                	je     445 <deregister_tm_clones+0x35>
 438:	55                   	push   %ebp
 439:	89 e5                	mov    %esp,%ebp
 43b:	83 ec 14             	sub    $0x14,%esp
 43e:	51                   	push   %ecx
 43f:	ff d0                	call   *%eax
 441:	83 c4 10             	add    $0x10,%esp
 444:	c9                   	leave  
 445:	f3 c3                	repz ret 
 447:	89 f6                	mov    %esi,%esi
 449:	8d bc 27 00 00 00 00 	lea    0x0(%edi,%eiz,1),%edi

00000450 <register_tm_clones>:
 450:	e8 d7 00 00 00       	call   52c <__x86.get_pc_thunk.dx>
 455:	81 c2 ab 1b 00 00    	add    $0x1bab,%edx
 45b:	55                   	push   %ebp
 45c:	8d 8a 10 00 00 00    	lea    0x10(%edx),%ecx
 462:	8d 82 10 00 00 00    	lea    0x10(%edx),%eax
 468:	89 e5                	mov    %esp,%ebp
 46a:	53                   	push   %ebx
 46b:	29 c8                	sub    %ecx,%eax
 46d:	c1 f8 02             	sar    $0x2,%eax
 470:	83 ec 04             	sub    $0x4,%esp
 473:	89 c3                	mov    %eax,%ebx
 475:	c1 eb 1f             	shr    $0x1f,%ebx
 478:	01 d8                	add    %ebx,%eax
 47a:	d1 f8                	sar    %eax
 47c:	74 14                	je     492 <register_tm_clones+0x42>
 47e:	8b 92 f0 ff ff ff    	mov    -0x10(%edx),%edx
 484:	85 d2                	test   %edx,%edx
 486:	74 0a                	je     492 <register_tm_clones+0x42>
 488:	83 ec 08             	sub    $0x8,%esp
 48b:	50                   	push   %eax
 48c:	51                   	push   %ecx
 48d:	ff d2                	call   *%edx
 48f:	83 c4 10             	add    $0x10,%esp
 492:	8b 5d fc             	mov    -0x4(%ebp),%ebx
 495:	c9                   	leave  
 496:	c3                   	ret    
 497:	89 f6                	mov    %esi,%esi
 499:	8d bc 27 00 00 00 00 	lea    0x0(%edi,%eiz,1),%edi

000004a0 <__do_global_dtors_aux>:
 4a0:	55                   	push   %ebp
 4a1:	89 e5                	mov    %esp,%ebp
 4a3:	53                   	push   %ebx
 4a4:	e8 57 ff ff ff       	call   400 <__x86.get_pc_thunk.bx>
 4a9:	81 c3 57 1b 00 00    	add    $0x1b57,%ebx
 4af:	83 ec 04             	sub    $0x4,%esp
 4b2:	80 bb 20 00 00 00 00 	cmpb   $0x0,0x20(%ebx)
 4b9:	75 27                	jne    4e2 <__do_global_dtors_aux+0x42>
 4bb:	8b 83 ec ff ff ff    	mov    -0x14(%ebx),%eax
 4c1:	85 c0                	test   %eax,%eax
 4c3:	74 11                	je     4d6 <__do_global_dtors_aux+0x36>
 4c5:	83 ec 0c             	sub    $0xc,%esp
 4c8:	ff b3 0c 00 00 00    	pushl  0xc(%ebx)
 4ce:	e8 1d ff ff ff       	call   3f0 <_init+0x34>
 4d3:	83 c4 10             	add    $0x10,%esp
 4d6:	e8 35 ff ff ff       	call   410 <deregister_tm_clones>
 4db:	c6 83 20 00 00 00 01 	movb   $0x1,0x20(%ebx)
 4e2:	8b 5d fc             	mov    -0x4(%ebp),%ebx
 4e5:	c9                   	leave  
 4e6:	c3                   	ret    
 4e7:	89 f6                	mov    %esi,%esi
 4e9:	8d bc 27 00 00 00 00 	lea    0x0(%edi,%eiz,1),%edi

000004f0 <frame_dummy>:
 4f0:	e8 37 00 00 00       	call   52c <__x86.get_pc_thunk.dx>
 4f5:	81 c2 0b 1b 00 00    	add    $0x1b0b,%edx
 4fb:	8d 82 30 ff ff ff    	lea    -0xd0(%edx),%eax
 501:	8b 08                	mov    (%eax),%ecx
 503:	85 c9                	test   %ecx,%ecx
 505:	75 09                	jne    510 <frame_dummy+0x20>
 507:	e9 44 ff ff ff       	jmp    450 <register_tm_clones>
 50c:	8d 74 26 00          	lea    0x0(%esi,%eiz,1),%esi
 510:	8b 92 f8 ff ff ff    	mov    -0x8(%edx),%edx
 516:	85 d2                	test   %edx,%edxfz
 518:	74 ed                	je     507 <frame_dummy+0x17>
 51a:	55                   	push   %ebp
 51b:	89 e5                	mov    %esp,%ebp
 51d:	83 ec 14             	sub    $0x14,%esp
 520:	50                   	push   %eax
 521:	ff d2                	call   *%edx
 523:	83 c4 10             	add    $0x10,%esp
 526:	c9                   	leave  
 527:	e9 24 ff ff ff       	jmp    450 <register_tm_clones>

0000052c <__x86.get_pc_thunk.dx>:
 52c:	8b 14 24             	mov    (%esp),%edx
 52f:	c3                   	ret    

00000530 <test_simple>:
 530:	8b 54 24 04          	mov    0x4(%esp),%edx
 534:	b8 01 00 00 00       	mov    $0x1,%eax
 539:	80 3a 42             	cmpb   $0x42,(%edx)
 53c:	75 0c                	jne    54a <test_simple+0x1a>
 53e:	31 c0                	xor    %eax,%eax
 540:	80 7a 01 41          	cmpb   $0x41,0x1(%edx)
 544:	0f 94 c0             	sete   %al
 547:	83 c0 01             	add    $0x1,%eax
 54a:	a3 00 00 00 00       	mov    %eax,0x0
			54b: R_386_32	x
 54f:	c3                   	ret    

00000550 <Payload>:
 550:	55                   	push   %ebp
 551:	89 e5                	mov    %esp,%ebp
 553:	83 ec 08             	sub    $0x8,%esp
 556:	83 ec 0c             	sub    $0xc,%esp
 559:	68 00 00 00 00       	push   $0x0
			55a: R_386_32	payloadBuffer
 55e:	e8 fc ff ff ff       	call   55f <Payload+0xf>
			55f: R_386_PC32	test_simple
 563:	83 c4 10             	add    $0x10,%esp
 566:	b8 00 00 00 00       	mov    $0x0,%eax
 56b:	c9                   	leave  
 56c:	c3                   	ret    

0000056d <_Z6somainv>:
 56d:	55                   	push   %ebp
 56e:	89 e5                	mov    %esp,%ebp
 570:	90                   	nop
 571:	5d                   	pop    %ebp
 572:	c3                   	ret    

Disassembly of section .fini:

00000574 <_fini>:
 574:	53                   	push   %ebx
 575:	83 ec 08             	sub    $0x8,%esp
 578:	e8 83 fe ff ff       	call   400 <__x86.get_pc_thunk.bx>
 57d:	81 c3 83 1a 00 00    	add    $0x1a83,%ebx
 583:	83 c4 08             	add    $0x8,%esp
 586:	5b                   	pop    %ebx
 587:	c3                   	ret    
